(VAdolf Lindenbaum
p1
VAdolf Lindenbaum (June 12, 1904 in Warsaw, Kingdom of Poland, Russian Empire (now Poland) \u2013 1941 in Paneriai), was a Polish logician and mathematician.\u000aHe was a student of Wac\u0142aw Sierpi\u0144ski, became a distinguished author of works on set theory and had served as an Assistant Professor at Warsaw University. He was killed by the Germans in Paneriai (Ponary), near Vilnius.\u000aAmong his most famous works are the Lindenbaum's lemma and Lindenbaum\u2013Tarski algebra.\u000a\u000a\u000a== References ==\u000aPage on Sierpinski, contains fragments of his memoirs mentioning the murder of Lindenbaum\u000aAn entry about Lindenbaum written by Edward Marczewski and Andrzej Mostowski, Polski s\u0142ownik biograficzny, Tom XVII, p. 364\u2013365\u000aAn Open Access article on Lindenbaum\u2032s life and works in Logica Universalis, Volume 8, Issue 3\u20134 (December 2014), pp 285\u2013320
p2
tp3
.