(VAlexander Gerard
p1
VVery Rev Alexander Gerard FRSE DD (1728 \u20131795) was a Scottish minister, academic and philosophical writer.In 1764 he was the Moderator of the General Assembly of the Church of Scotland.\u000a\u000a\u000a== Life ==\u000aHe was born on 22 February 1728, the son of Rev. Gilbert Gerard (d.1738), at the manse in Garioch in Aberdeenshire. He attended Foveran Parish School then Aberdeen Grammar School.\u000aHe went to Aberdeen University, graduating MA in 1744. He then went to Edinburgh University to study Divinity. He was licensed to preach in 1748.\u000aIn 1750 he returned to Aberdeen University to lecture in Moral Philosophy becoming a Professor in 1752, based at Marischal College.From 1760 to 1771 he was Professor of Divinity at Marischal, moving to King's College in 1771. As a professor he introduced various reforms. During this time he was also one of the ministers of the city, serving at Greyfriars Church. He was a member of the Aberdeen Philosophical Society, founded by Prof John Gregory and including members such as Prof Thomas Gordon.\u000aIn 1783 he was a co-founder of the Royal Society of Edinburgh.\u000aHe died on 22 January 1795.\u000a\u000a\u000a== Publications ==\u000aIn 1756 he gained the prize for an Essay on Taste which, together with an Essay on Genius, he subsequently published. These treatises, though now superseded, gained for him considerable reputation.\u000aCompendious View of the Evidences of Natural and Revealed Religion the joint work by Alexander Gerard and his son Gilbert Gerard, published 1828.\u000a\u000a\u000a== Family ==\u000aGilbert Gerard was his son.\u000a\u000a\u000a== References ==\u000a\u000a\u000a== References ==\u000aLee, Sidney (1903), Dictionary of National Biography Index and Epitome\u000aAttribution\u000a This article incorporates text from a publication now in the public domain: Cousin, John William (1910). A Short Biographical Dictionary of English Literature. London: J. M. Dent & Sons. Wikisource
p2
tp3
.