(VDavid Wiggins
p1
VDavid Wiggins (born 8 March 1933) is a British moral philosopher, metaphysician, and philosophical logician working especially on identity and issues in meta-ethics. His 2006 book, Ethics. Twelve Lectures on the Philosophy of Morality defends a position he calls "moral objectivism".\u000a\u000a\u000a== Life ==\u000aWiggins read philosophy at Brasenose College, Oxford, and had J. L. Ackrill as a tutor. He was the Wykeham Professor of Logic from 1993 to 2000. He was president of the Aristotelian Society from 1999 to 2000. He is Fellow of the British Academy, and Foreign Honorary Member of the American Academy of Arts and Sciences.\u000a\u000a\u000a== Work ==\u000aAccording to philosopher Harold Noonan:\u000aThe most influential part of Wiggins's work has been in metaphysics, where he has developed a fundamentally Aristotelian conception of substance, enriched by insights drawn from Putnam (1975) and Kripke (1980). His works also contain influential discussions of the problem of personal identity, which Wiggins elucidates via a conception that he calls the "Animal Attribute View."\u000a\u000a\u000a== Legacy ==\u000aWiggins' distinguished pupils include:\u000aJohn McDowell\u000aDerek Parfit\u000aJonathan Westphal\u000aTimothy Williamson\u000a\u000a\u000a== Selected writings ==\u000a\u000a\u000a=== Books ===\u000aEthics. Twelve Lectures on the Philosophy of Morality (Cambridge, 2006)\u000aSameness and Substance Renewed (Cambridge, 2001)\u000aNeeds, Values, Truth: Essays in the Philosophy of Value (Oxford, 1987; second edition 1998)\u000aSameness and Substance (Oxford, 1980)\u000aTruth, Invention, and the Meaning of Life (Proceedings of the British Academy, 1976)\u000aIdentity and Spatio-Temporal Continuity (Oxford, 1967)\u000a\u000a\u000a=== Articles ===\u000a"A Sensible Subjectivism?" (Needs, Values, Truth: Essays in the Philosophy of Value (New York: Oxford University Press, 1987), 185-214)\u000a"Weakness of Will Commensurability, and the Objects of Deliberation and Desire" (Proceedings of the Aristotelian Society, 1978)\u000a"Towards a reasonable libertarianism" (Essays on Freedom of Action, 1973 - Routledge & Kegan Paul)\u000a"On Sentence-sense, Word-sense and Difference of Word-sense: Towards a Philosophical Theory of Dictionaries" (1971) (link)\u000a\u000a\u000a== References ==\u000a\u000a\u000a== External links ==\u000aPicture of Wiggins - on the Ryle Room page.
p2
tp3
.