(VDirk van Dalen
p1
VDirk van Dalen (born 20 December 1932, Amsterdam) is a Dutch mathematician and historian of science.\u000aVan Dalen studied mathematics and physics and astronomy at the University of Amsterdam. Inspired by the work of LEJ Brouwer and Arend Heyting, he received his Ph.D. in 1963 from the University of Amsterdam for the thesis Extension problems in intuitionistic plane Projective geometry. From 1964 to 1966 Van Dalen taught logic and mathematics at MIT, and later Oxford. From 1967 he was professor at the University of Utrecht. In 2003 Dirk van Dalen was awarded the Academy Medal 2003 of the Royal Dutch Academy of Sciences for bringing the works of Brouwer to international attention.\u000a\u000a\u000a== Works ==\u000aFoundations of Set Theory, in samenwerking met Yehoshua Bar-Hillel en Azriel Levy, uitgeverij North Holland Amsterdam, 1958.\u000aExtension problems in intuitionistic plane projective geometry, 1963.\u000aStructure and Logic, Springer Universitext, 1980. ISBN 3-540-20879-8\u000aBrouwer's Cambridge Lectures on Intuitionism, Dirk van Dalen (redactie), Cambridge University Press, Cambridge, 1981.\u000aTroelstra, Anne; van Dalen, Dirk (1988). Constructivism in Mathematics, Vol. 2. Studies in Logic and the Foundations of Mathematics. ISBN 0-444-70358-6. \u000aZermelo and the Skolem Paradox, Dirk van Dalen en Heinz-Dieter Ebbinghaus in: The Bulletin of Symbolic Logic, Volume 6, Nr 2, Juni 2000.\u000aIntuitionistic Logic, in: The Blackwell Guide to Philosophical Logic, Lou Goble (redactie), Blackwell New York, 2001.\u000aL.E.J. Brouwer - Topologist, Institionalist, Philosopher, Dirk van Dalen, Springer-Verlag, London, 2013.\u000a\u000a\u000a== References ==\u000aThe article was originally created as a translation (Google) of the corresponding article in Dutch Wikipedia.\u000a\u000a\u000a== Further reading ==\u000aDirk van Dalen Festschrift, Henk Barendregt en anderen (redactie), University of Utrecht, Department of Philosophy, 1993\u000aSpecial issue: a tribute to Dirk van Dalen, Yuri Gurevich (redactie), uitgeverij North-Holland, Amsterdam, 1995.\u000a\u000a\u000a== External links ==\u000aKoninklijke bibliotheek over Dirk van Dalen\u000aHomepage aan de Universiteit van Utrecht\u000aPersbericht KNAW 2003\u000aDirk van Dalen at the Mathematics Genealogy Project
p2
tp3
.