(VDonald A. Martin
p1
VDonald A. (Tony) Martin (born December 24, 1940) is an American set theorist and philosopher of mathematics at UCLA, where he is a member of the faculty of mathematics and philosophy.\u000aAmong Martin's most notable work are the proofs of analytic determinacy (from the existence of a measurable cardinal), Borel determinacy (from ZFC alone), the proof (with John R. Steel) of projective determinacy (from suitable large cardinal axioms), and his work on Martin's axiom. Martin measure on Turing degrees is also named after Martin.\u000aMartin is a Harvard junior fellow. In 2014, he became a Fellow of the American Mathematical Society.\u000a\u000a\u000a== See also ==\u000aAmerican philosophy\u000aList of American philosophers\u000a\u000a\u000a== References ==\u000a\u000a\u000a== External links ==\u000aList of publications\u000aUCLA Logic center
p2
tp3
.