(VDugald Macpherson
p1
VH. Dugald Macpherson is a mathematician and logician. He is Professor of Pure Mathematics at the University of Leeds.\u000aHe obtained his DPhil from the University of Oxford in 1983 for his thesis entitled "Enumeration of Orbits of Infinite Permutation Groups" under the supervision of Peter Cameron. In 1997 he was awarded the Junior Berwick Prize by the London Mathematical Society. He continues to research into permutation groups and model theory. He is scientist in charge of the MODNET team at the University of Leeds. He co-authored the book "Notes on Infinite Permutation Groups"\u000a\u000a\u000a== References ==\u000a\u000a\u000a== External links ==\u000aProf. Macpherson's homepage
p2
tp3
.