(VFujiwara Seika
p1
VFujiwara Seika (\u85e4\u539f \u60fa\u7aa9, February 8, 1561 \u2013 October 19, 1619) was a Japanese neo-Confucian philosopher in the Edo period.\u000aHis most well-known student was Hayashi Razan (1583\u20131657).\u000a\u000a\u000a== See also ==\u000aNeo-Confucianism in Japan\u000a\u000a\u000a== References ==
p2
tp3
.