(VGhazali
p1
VGhazali (Arabic: \u063a\u0632\u0627\u0644\u064a\u200e\u200e) is an Arabic surname, it may refer to:\u000aAbu Hamed Mohammad ibn Mohammad Ghazali (c. 1058\u20131111), Persian Islamic scholar and reviver\u000aAhmad Ghazali (c. 1061\u20131123 or 1126), Persian mystic\u000aKacem El Ghazzali, Moroccan activist\u000aMohammed Ghazali, Pakistani cricketer\u000aMohammed al-Ghazali (1917\u20131996), Islamic cleric\u000aNazem Al-Ghazali (1921-1963), Iraqi singer\u000aRustum Ghazali, Syrian politician\u000aSalma Ghazali, Algerian singer\u000aYoucef Ghazali, Algerian footballer\u000aZainab al Ghazali (1917-2005), Egyptian activist
p2
tp3
.