(VGiovanni Battista Scaramelli
p1
VGiovanni Battista Scaramelli (24 November 1687 \u2013 11 January 1752) was an Italian Jesuit, ethicist and ascetical writer.\u000a\u000a\u000a== Biography ==\u000aHe was born at Rome and died at Macerata in 1752. He entered the Society of Jesus on 21 September 1706. He devoted himself to preaching and the ministry for fifteen years.\u000a\u000a\u000a== Legacy ==\u000aAccording to Dominican theologian Jordan Aumann, Scaramelli was the first to use the term "asceticism" in contradistinction to the older word mystical after the term had been introduced by the Franciscan friar named Dobrosielski into the Latin usage of western theology in 1655. Scaramelli's work on ethics in his Directorium Asceticum has stood the test of time and integrates well with the evidence from modern psychology.\u000a\u000a\u000a== Writings ==\u000aVita di Suor Maria Crocifissa Satellico Monaca francescana nel monastero di monte Nuovo (1750)\u000aDiscernimento de' spiriti per il retto regolamento delle azione proprie ed altrui. Operetta utile specialemente ai Direttori delle anime (1753) (English edition Directorium Asceticum)\u000aDirettorio ascetico in cui s'insegna il modo di condurre l'Anime per vie ordinarie della grazia alla perfezione christiana, indirizzato ai direttori della Anime (1752)\u000aIl direttorio mistico indirizzato a' direttori di quelle anime che Iddio conduce per la via della contemplazione (1754)\u000aDottrina di S. Giovanni della Croce (1860)\u000a\u000a\u000a== His books online ==\u000aworks of Scaramelli at archive.org\u000a\u000a\u000a== Notes ==\u000a\u000a\u000a== References ==\u000a Herbermann, Charles, ed. (1913). "Giovanni Battista Scaramelli". Catholic Encyclopedia. New York: Robert Appleton Company.  This article incorporates text from a publication now in the public domain: Herbermann, Charles, ed. (1913). "Giovanni Battista Scaramelli". Catholic Encyclopedia. New York: Robert Appleton.
p2
tp3
.