(VGottfried Leibniz
p1
VFrom a short name: This is a redirect from a title that is a shortened form of a person's full name, a book title or other more complete article title.\u000aUse this rcat (not {{R from initialism}}) to tag redirects that are the initials of a person's name.
p2
tp3
.