(VHeiric of Auxerre
p1
VHeiric of Auxerre  (841\u2013876) was a French Benedictine theologian and writer.\u000aHe was an oblate of the monastery of St. Germanus of Auxerre from a young age. He studied with Servatus Lupus and Haymo of Auxerre. His own students included Remigius of Auxerre and Hucbald.\u000aHis Miracula sancti Germani was a verse life of St. Germanus. Other works include his Collectaeum, a homiliary, and glosses on the Categoriae decem.\u000a\u000a\u000a== Notes ==\u000a\u000a\u000a== External links ==\u000aFriedrich Wilhelm Bautz (1990). "Heiric of Auxerre". In Bautz, Friedrich Wilhelm. Biographisch-Bibliographisches Kirchenlexikon (BBKL) (in German). 2. Hamm: Bautz. col. 689. ISBN 3-88309-032-8. \u000aChapter on the School of Auxerre from The History of Philosophy by William Turner, 1903.\u000aHeiric of Auxerre's labyrinth
p2
tp3
.