(VJacob M. Appel
p1
VJacob M. Appel (born February 21, 1973) is an American author, bioethicist, physician, lawyer and social critic. He is best known for his short stories, his work as a playwright, and his writing in the fields of reproductive ethics, organ donation, neuroethics and euthanasia. Appel's novel The Man Who Wouldn't Stand Up won the Dundee International Book Prize in 2012.\u000a\u000a\u000a== Education ==\u000aAppel was born in the Bronx and raised in Scarsdale, New York, and Branford, Connecticut. His family is Jewish. He completed his BA at Brown University with double majors in English and American literature and in history (1995). He has seven master's degrees from Brown (MA in European history, 1996), Columbia University (MA in American history, 1998, and MPhil, 2000), New York University (MFA in creative writing with a focus in fiction, 2000), Albany Medical College, constituent of the Union University of New York (MS in bioethics, 2012), and then completed his MFA in playwriting from Queens College of the City University of New York (2013) and MPH from the medical school of Mount Sinai Hospital (2014) Furthermore, he has a JD from Harvard Law School (2003) and an MD from the Columbia University College of Physicians and Surgeons (2009). He completed his residency at Mount Sinai in New York City and is a practicing psychiatrist there; he is also licensed to practice law in New York and Rhode Island. He is working on his PhD thesis from Columbia on the history of American medicine and psychiatry (as of May 2012).\u000a\u000a\u000a== Fiction writer and playwright ==\u000aAppel is a "prolific" short story writer. His fiction has been published in two hundred fifteen literary journals, including Agni, The Alaska Quarterly Review, The Gettysburg Review, The Missouri Review and StorySouth. His first story collection, Scouting for the Reaper, won Black Lawrence Press's Hudson Prize in 2012. Among the other awards he has won for his short stories are those sponsored by the Boston Review (1998) and New Millennium Writings (2004, 2007, 2008). He won the William Faulkner-William Wisdom Award for best short story in 2004 and a Sherwood Anderson Foundation grant in 2005. His fiction has been short-listed for the O. Henry Prize (2001), Best American Short Stories (2007, 2008), Best American Nonrequired Reading (2006, 2007), Best American Mystery Stories (2009) and the Pushcart Prize (2006, 2007, 2011).\u000aHis debut novel, The Man Who Wouldn't Stand Up, won the 2012 Dundee International Book Prize and was published by Cargo in October 2012. It was described as a "A darkly comic satire, full of insight into American culture " by Stephen Fry and \u201cengaging, funny, ingenious, even charming\u201d by Philip Pullman. His book subsequently won The International Rubery Book Award in 2013.\u000aHis plays have been performed by companies across the U.S., including the Detroit Repertory Theatre, Heller Theatre, and Epilogue Players.\u000aAppel has taught creative writing at the Gotham Writers' Workshop and New York University.\u000a\u000a\u000a== Bioethicist ==\u000a\u000a\u000a=== Academic bioethics ===\u000aAs a professional bioethicist, Appel has published in Hastings Center Report, The Cambridge Quarterly of Healthcare Ethics, Bulletin of the History of Medicine, The Journal of Law, Medicine and Ethics, The Journal of Medical Ethics, The Journal of Bioethical Inquiry and GeneWatch, the journal of the Council for Responsible Genetics.\u000aAppel is an advocate for the decriminalization of assisted suicide, raising the possibility that this might be made available to both the terminally ill and those with intractable, long-term mental illness. He has also defended the Groningen Protocol. He has written in favor of abortion rights and fertility treatment for homosexuals, as well as against electronic medical records, which he sees as poorly secured against hacking. He has also argued in favor of the legalization of prostitution, polygamy and incest between consenting adults and bestiality when the animal is not forced or harmed. He has raised concerns regarding the possibility that employers will require their employees to use pharmaceuticals for cognitive enhancement and has urged that death row inmates be eligible to receive kidney transplants. He generated considerable controversy for endorsing the mandatory use of preimplantation genetic diagnosis as part of the in vitro fertilization process to prevent the implantation of embryos carrying severe genetic defects. Appel has also written in support of an "open border" immigration policy. Among the causes that Appel has embraced is opposition to the forcible feeding of hunger strikers, both in domestic prisons and at Guantanamo Bay.\u000aHe has taught medical ethics at New York University, Columbia University, Mount Sinai School of Medicine and Brown University's Alpert Medical School.\u000a\u000a\u000a=== Commentary ===\u000aAppel writes for both The Huffington Post and Opposing Views. He has staked out a libertarian position of many bioethical issues, advocating a worldview that he describes as "a culture of liberty." He has also authored opinion pieces in The New York Times, New York Daily News, Chicago Tribune, Orlando Sentinel, Albany Times-Union, Tucson Citizen, Detroit Free Press, New Haven Register and The Providence Journal. The Best American Essays series named his nonfiction pieces as "notable essays" in the years 2011 and 2012.\u000a\u000a\u000a== Plays ==\u000aThe Resurrection of Dismas and Gestas (2005)\u000aIn the Floodplain (2005)\u000aArborophilia (2006)\u000aThe Three Belles of Eden (2006)\u000aThirds (2007)\u000aThe Mistress of Wholesome (2007)\u000aThe Replacement (2008)\u000aWoodpecker (2008)\u000aCausa Mortis (2009)\u000aHelen of Sparta (2009)\u000a\u000a\u000a== Books ==\u000aThe Man Who Wouldn't Stand Up (Cargo, 2012)\u000aThe Biology of Luck (Elephant Rock, 2013)\u000aScouting for the Reaper (Black Lawrence, 2014)\u000aPhoning Home (University of South Carolina Press, 2014)\u000aEinstein's Beach House (Pressgang/Butler University, 2014)\u000aThe Magic Laundry (Snake Nation, 2015)\u000aMiracles and Conundrums of the Secondary Planets (Black Lawrence, 2015)\u000aThe Topless Widow of Herkimer Street (Howling Bird Press/Augsburg College, 2016)\u000aCoulrophobia & Fata Morgana (Black Lawrence, 2016)\u000a\u000a\u000a== References ==\u000a\u000a\u000a== External links ==\u000aAppel's Biography at his website
p2
tp3
.