(VJenny Teichman
p1
VJenny Teichman is an Australian/British philosopher, writing mostly on ethics. She was born in Melbourne, Australia in 1930 and has taught mostly at Murray Edwards College, Cambridge, formerly known as New Hall, where she is now an Emeritus Fellow. She taught for shorter periods in Australia, Canada and the USA.\u000a\u000a\u000a== Bibliography ==\u000a\u000a\u000a=== Books ===\u000aTeichman, Jenny (1974). The mind and the soul : an introduction to the philosophy of mind. London: Routledge & Kegan Paul. \u000aIllegitimacy, Blackwell & Cornell UP 1982\u000aPacifism & the Just War, Blackwell 1986\u000aPhilosophy & the Mind, Blackwell 1988\u000aPhilosophy: a Beginners Guide (with Katherine Evans) Blackwell 1991, 1995, 1999 (translations in Polish, Spanish, Russian, Korean, Chinese & Georgian)\u000aSocial Ethics a Students Guide, Blackwell 1996 (translations in Spanish, Indonesian, Korean & Polish)\u000aEthics and Reality Ashgate, 2001\u000aPhilosophers' Hobbies and other Essays [27 short papers] illustrated by Michael Jorgensen, Blackjack Press 392 Station Street, Carlton, VIC 3054, Australia 2003.\u000aThe Philosophy of War & Peace, Imprint Academic, 2006\u000a\u000a\u000a==== Anthologies ====\u000aIntention & Intentionality: Essays in Honour of GEM Anscombe (with Cora Diamond) Harvester Press 1979\u000aAn Introduction to Modern European Philosophy (with Graham White) Macmillan 1995 and 1998\u000a\u000a\u000a=== Book reviews ===\u000a\u000a\u000a== References ==\u000a\u000a\u000a== External links ==\u000aJ. Teichman, Review of Aurel Kolnai's Sexual Ethics\u000aJ. Teichman, 'Dr Jekyll and Mr Hyde' (on Peter Singer)
p2
tp3
.