(VJeroen Groenendijk
p1
VJeroen Antonius Gerardus Groenendijk (Dutch pronunciation: [\u02c8\u0263run\u0259(n)d\u025bik]; born 20 July 1949, Amsterdam), is a Dutch logician, linguist and philosopher, working on philosophy of language, formal semantics, pragmatics.\u000aGroenendijk wrote a joint Ph.D. dissertation with Martin Stokhof on the formal semantics of questions, under the supervision of Renate Bartsch and Johan van Benthem. He was also an important figure in the development of dynamic semantics (together with Stokhof, Veltman and others). His current work is mainly focused on studying and developing the recently founded framework of Inquisitive Semantics.\u000aHe is a former director of the Institute for Logic, Language and Computation (ILLC) at the University of Amsterdam and a member of the group collectively publishing under the pseudonym L. T. F. Gamut.\u000a\u000a\u000a== References ==\u000a\u000a\u000a== External links ==\u000aGroenendijk's university homepage\u000aInquisitive Semantics project homepage
p2
tp3
.