(VJody Azzouni
p1
VJody Azzouni (born Jawad Azzouni; born 1954) is an American philosopher, short fiction writer, and poet. He currently is Professor of Philosophy at Tufts University.\u000a\u000a\u000a== Education ==\u000aHe received his bachelor's degree and master's degree from New York University and his PhD from the City University of New York.\u000a\u000a\u000a== Career and philosophical positions ==\u000aAzzouni is currently working on the philosophy of mathematics (he holds a degree in mathematics), science, logic, language and in areas of metaphysics, epistemology, and aesthetics. He acknowledges, as do many of his peers, a debt to the renowned philosopher, Willard Van Orman Quine. Azzouni is of the nominalist bent and has centered much of his philosophical efforts around defending nominalism.\u000aOne of his most distinctive positions is the as yet controversial claim that mathematical objects don't exist.\u000a\u000a\u000a== Other work ==\u000aIn addition to his philosophical endeavors, Azzouni has published numerous short stories. He has written a book of poetry entitled The Lust For Blueprints.\u000a\u000a\u000a== Books ==\u000a\u000a\u000a=== Philosophy ===\u000aMetaphysical Myths, Mathematical Practice: The Ontology and Epistemology of the Exact Sciences (1994)\u000aKnowledge and Reference in Empirical Science (2000)\u000aDeflating Existential Consequence: A Case for Nominalism (2004)\u000aTracking Reason: Proof, Consequence and Truth (2006)\u000aTalking About Nothing: Numbers, Hallucinations and Fictions (2010)\u000aSemantic perception : how the illusion of a common language arises and persists (2013)\u000a\u000a\u000a=== Poetry ===\u000aThe Lust for Blueprints The Poet's Press (1999) ISBN 0-922558-07-8 ISBN 978-0922558070\u000aHereafter Landscapes The Poet's Press (2010) ISBN 0-922558-42-6\u000a\u000a\u000a== See also ==\u000a\u000aAmerican philosophy\u000aList of American philosophers\u000a\u000a\u000a== External links ==\u000aJody Azzouni's poetry Web site\u000aFaculty Profile
p2
tp3
.