(VJohn Arthur (philosopher)
p1
VJohn Arthur (September 22, 1946 \u2013 January 22, 2007) was an American professor of philosophy and an expert in legal theory, constitutional theory, social ethics, and political philosophy. He taught at the State University of New York at Binghamton for 18 years.\u000a\u000a\u000a== Early life and education ==\u000aJohn Arthur, son of L. James Arthur and Elizabeth Gleason Arthur, grew up in Denver, Colorado. Arthur earned his bachelor's degree in philosophy and history at Cornell College and his master's degree in political sociology and PhD in philosophy at Vanderbilt University.\u000a\u000a\u000a== Academic career ==\u000aIn total, John Arthur spent time teaching at five colleges and universities, including Brandeis University, Harvard University, Tennessee State University, the College of Charleston and Lake Forest College.\u000aFrom 1981\u20131988 Arthur taught at Tennessee State University. Finding the segregated conditions at TSU to be in violation of the Equal Protection Clause of the United States Constitution, he organized a biracial group to file suit against the State of Tennessee. The resulting settlement included a desegregation plan for the entire post-secondary education system of Tennessee and brought in millions of dollars to improve Tennessee State University. In 1989, soon after leaving Tennessee State University, Arthur published his first book, The Unfinished Constitution: Philosophy and Constitutional Practice. Arthur served as a fellow in law and philosophy at Harvard Law School from 1986\u20131988.\u000aIn 1988, Arthur became a professor of philosophy at Binghamton University, where he worked for 18 years. He created an interdisciplinary academic major for Binghamton undergraduate students called the "Program in Philosophy, Politics, and Law", of which Arthur was the director. He received the University and Chancellor\u2019s Awards for Excellence in Teaching in 1992. In 1995, Arthur served as a research fellow at the University of St Andrews' Centre for Philosophy and Public Affairs, and from 2002\u20132003 he was a fellow in law and philosophy at the University of Oxford.\u000a\u000a\u000a== Personal life ==\u000aIn 1990, John Arthur married consumer protection lawyer Amy Shapiro in Denver, Colorado. Arthur's previous marriage had ended in divorce.\u000aJohn Arthur died in hospice care at Lourdes Hospital in Binghamton, New York on the morning of January 22 after a year-long battle with lung cancer. He was buried in Denver, Colorado and was survived by his wife.\u000a\u000a\u000a== Works ==\u000aJohn Arthur wrote three books, the last of which was published posthumously.\u000aArthur, John (1989). The unfinished constitution: philosophy and constitutional practice. Belmont, Calif: Wadsworth Pub. Co. ISBN 9780534100148. \u000aArthur, John (1995). Words that bind: judicial review and the grounds of modern constitutional theory. Boulder: Westview Press. ISBN 9780813323497. \u000aArthur, John (2007). Race, equality, and the burdens of history. Cambridge, UK New York: Cambridge University Press. ISBN 9780521704953. \u000aArthur also co-edited and co-authored several books, including:\u000aArthur, John; Scalet, Steven P (2009). Morality and moral controversies: readings in moral, social, and political philosophy. Upper Saddle River, N.J: Pearson Prentice Hall. ISBN 9780136031376. \u000aArthur, John; Shaw, William H (2010). Readings in the philosophy of law. Upper Saddle River, N.J: Pearson Prentice Hall. ISBN 9780205708093. \u000a\u000a\u000a== References ==\u000a\u000a\u000a== External links ==\u000aProgram in Philosophy, Politics, and Law at Binghamton University
p2
tp3
.