(VLeo Harrington
p1
VLeo Anthony Harrington (born May 17, 1946) is a professor of mathematics at the University of California, Berkeley who works in recursion theory, model theory, and set theory.\u000aHarrington and Jeff Paris proved the Paris\u2013Harrington theorem.\u000aHarrington showed that if the Axiom of Determinacy holds for all analytic sets then x# exists for all reals x.\u000aHarrington and Saharon Shelah showed that the first order theory of the partially ordered set of recursively enumerable Turing degrees is undecidable.\u000a\u000a\u000a== References ==\u000a\u000a\u000a== External links ==\u000aHome page.\u000aLeo Harrington at the Mathematics Genealogy Project
p2
tp3
.