(VLoren Lomasky
p1
VLoren E. Lomasky is an American philosopher, currently a Cory Professor of Political Philosophy, Policy and Law at the University of Virginia. Lomasky earned his PhD from the University of Connecticut, and has previously taught at Bowling Green State University in Ohio, the University of Minnesota in Duluth, and the Australian National University in Canberra. He has also been a contributing editor to Reason magazine.\u000aLomasky has written principally on ethics and political philosophy. His book Persons, Rights, and the Moral Community established his reputation as a leading advocate of a rights-based libertarian approach to moral and social issues. Besides these, his teaching interests include the philosophy of religion, medieval philosophy, and other periods in the history of philosophy.\u000aLomasky has been the recipient of many awards including the 1991 Matchette Prize for his Persons, Rights, and the Moral Community. Professor Lomasky has held research appointments sponsored by the NEH, the Center for the Study of Public Choice, the Australian National University and Bowling Green's Social Philosophy and Policy Center.\u000a\u000a\u000a== Selected bibliography ==\u000a"When Hard Heads Collide: A Philosopher Encounters Public Choice," The American Journal of Economics and Sociology, 63 (2004).\u000a"Liberty and Welfare Goods: Reflection on Clashing Liberalisms," Journal of Ethics 4 (2000).\u000a"Aid Without Egalitarianism: Assisting Indigent Defendants," in William C. Heffernan & John Kleinig (eds.), From Social Justice to Criminal Justice, Oxford: Oxford University Press, 2000, ISBN 0-19-512985-7.\u000aDemocracy and Decision: The Pure Theory of Electoral Preference, Cambridge: Cambridge University Press, 1993, ISBN 0-521-35043-3 (with Geoffrey Brennan).\u000aPolitics and Process: New Essays in Democratic Thought, Cambridge: Cambridge University Press 1989, ISBN 0-521-35043-3 (co-editor, with Geoffrey Brennan).\u000aPersons, Rights, and the Moral Community, Oxford: Oxford University Press, 1987, ISBN 0-19-504209-3.\u000a\u000a\u000a== See also ==\u000aAmerican philosophy\u000aLibertarian views of rights\u000aList of American philosophers\u000a\u000a\u000a== External links ==\u000aLoren Lomasky's profile at University of Virginia\u000aLomaskys's writings at the Independent Review.\u000aLomasky's writings at the Competitive Enterprise Institute site.\u000aLomasky's writings at the Foundation for Economic Education.\u000a"Is Social Security Politically Untouchable?". The Cato Journal, 5 (Spring/Summer 1985).
p2
tp3
.