(VMartin Stokhof
p1
VMartin Stokhof (born 1950, Amsterdam) is a Dutch logician and philosopher. Stokhof wrote a joint Ph.D. dissertation with Jeroen Groenendijk on the semantics of questions, under the supervision of Renate Bartsch and Johan van Benthem. He was also an important figure in the development of dynamic semantics (together with Groenendijk, Veltman and others). He is also known for his work on Ludwig Wittgenstein.\u000aHe is a former director of the Institute for Logic, Language and Computation at the University of Amsterdam and a member of the group collectively publishing under the pseudonym L. T. F. Gamut.\u000aIn 2006 he was elected member of the Royal Netherlands Academy of Arts and Sciences.\u000a\u000a\u000a== References ==\u000a\u000a\u000a== External links ==\u000aStokhof's university homepage
p2
tp3
.