(VMoj\u017cesz Presburger
p1
VMoj\u017cesz Presburger (1904\u20131943?) was a Polish Jewish mathematician, logician, and philosopher. He was a student of Alfred Tarski and is known for, among other things, having invented Presburger arithmetic as a student in 1929.\u000aHe was born in Warsaw on 27 December 1904 and died in the Holocaust, probably 1943.\u000aIn 2010, the European Association for Theoretical Computer Science began conferring the annual Presburger Award (named after Moj\u017cesz Presburger) to a young scientist (in exceptional cases to several young scientists) for outstanding contributions in theoretical computer science. Miko\u0142aj Boja\u0144czyk was the first recipient.\u000a\u000a\u000a== References ==\u000a\u000a\u000a== External links ==\u000aMoj\u017cesz Presburger's Photograph and document of death\u000aDocuments about Presburger and a Flash presentation by Miko\u0142aj Boja\u0144czyk\u000aPresburger award, European Association for Theoretical Computer Science.
p2
tp3
.