(VNorbert Bolz
p1
VNorbert Bolz (born April 17, 1953) is a German philosopher and media theorist. He is a professor at the Technical University of Berlin.\u000aBolz developed a media theory, the "Theorie der neuen Medien", that is influenced by Friedrich Nietzsche, Walter Benjamin and Marshall McLuhan.\u000a\u000a\u000a== Film and TV appearances ==\u000aMarx Reloaded, Arte, April 2011.\u000a\u000a\u000a== External links ==\u000aProfile at the TU Berlin
p2
tp3
.