(VOliver Wendell Holmes, Jr.
p1
VFrom a modification: This is a redirect from a modification of the target's title; for example, its words are rearranged, or punctuation in the name is changed. In cases of modification from distinctly longer or shorter names, please use {{R from long name}} or {{R from short name}}, respectively.\u000aUse this rcat instead of {{R from other capitalisation}} and {{R from plural}} in namespaces other than mainspace for those types of modification.
p2
tp3
.