(VOswald von Nell-Breuning
p1
VOswald von Nell-Breuning SJ (March 8, 1890 \u2013 August 21, 1991) was a Roman Catholic theologian and sociologist.\u000aBorn in Trier, Germany into an aristocratic family, Nell-Breuning was ordained in 1921 and appointed Professor of Ethics at the University of Frankfurt am Main in 1928. He was instrumental in the drafting of Pope Pius XI's social encyclical Quadragesimo anno (1931), which \u2013 like the earlier Rerum novarum (1891), after which it was named \u2013 dealt with the "Social Question" and developed the principle of subsidiarity. Nell-Breuning was not allowed to publish from 1936 to the end of Nazi Germany in 1945. He died in Frankfurt am Main.\u000a\u000a\u000a== References ==\u000aOswald von Nell-Breuning (1890-1991)\u2014Katholischer Sozialethiker, Sozialphilosoph und Sozialwissenschaftler
p2
tp3
.