(VPaolo da Pergola
p1
VPaolo da Pergola (died 1455, in Venice) was an Italian humanist philosopher, mathematician and Occamist logician. He was a pupil of Paul of Venice.\u000aHis most important work was probably De sensu composito et diviso. His logical works were printed early.\u000aHe taught at the Scuola di Rialto from 1421 to 1454. He was teacher and friend of the glassmaker Antonio Barovier.\u000aAmong his pupils was also Nicoletto Vernia, a well known professor of philosophy in Padua.\u000aThere is a memorial to him in San Giovanni Elemosinario, Venice.\u000a\u000a\u000a== Works ==\u000aLogica; and, Tractatus de sensu composito et diviso by Paolo della Pergola, edited by Mary Anthony Brown, Saint Bonaventure, New York: Franciscan Institute, 1961.\u000a\u000a\u000a== Notes ==
p2
tp3
.