(VRadhakamal Mukerjee
p1
VRadhakamal Mukerjee (1889\u20131968), a leading thinker and social scientist of modern India, was Professor of Economics and Sociology and Vice-Chancellor of the University of Lucknow. Mukerjee played an important and constructive role in the Indian independence movement. He was a highly original philosopher of history and a discerning interpreter of culture and civilization and a 1962 recipient of the third highest Indian civilian honour of the Padma Bhushan.\u000a\u000a\u000a== Formative years ==\u000aMukerjee was the son of a barrister in Baharampur, West Bengal, a city located some 185 km north of Kolkata. He grew up in a household with a scholarly focus and a library devoted to history, literature, the law and Sanskrit texts. After attending Krishnanagar College, he gained an academic scholarship to Presidency College, under the University of Calcutta. He earned his honours degrees in English and History.\u000a\u000a\u000a== Literary works ==\u000aMukerjee opened the discourse of the Ashtavakra Gita into English with his posthumous work published in 1971.\u000a\u000a\u000a== Early life ==\u000aMukherjees theory of society sought to explain the values of civilization. In sense, Radhakamal was a pioneer of transdisciplinary approach in science.\u000a\u000a\u000a== Work ==\u000aRadhakamal Mukerjee emphasized interdisciplinary disciplinary approach towards the understanding of life. Mukerjee sought to break the barriers between physical sciences and sciences relating to persons aspects. Mukerjee was a pioneer of Sociology in the 1900s.\u000a\u000a\u000a== Notes ==\u000a\u000a\u000a== References ==\u000aRadhakamal Mukerjee, India: The Dawn of a New Era: An Autobiography Radha Publ. (1997) ISBN 81-7487-114-4\u000aRadhakamal Mukerjee at Worldcat
p2
tp3
.