(VRichard Ferrybridge
p1
VRichard Ferrybridge was an English Scholastic logician of the fourteenth century.\u000aHis works include a Tractatus de veritate sive logica, and the Consequentiae. He is alluded to in The Anatomy of Melancholy.\u000a\u000a\u000a== References ==\u000aAshworth, E. J. "Feribrigge, Richard". Oxford Dictionary of National Biography (online ed.). Oxford University Press. doi:10.1093/ref:odnb/53184.  (Subscription or UK public library membership required.)\u000a\u000a\u000a== Notes ==
p2
tp3
.