(VRichard Kilvington
p1
VRichard Kilvington (c. 1302-1361) was an English scholastic philosopher at the University of Oxford. His surviving works are lecture notes from the 1320s and 1330s. He was a Fellow of Oriel College, Oxford. He was involved in a controversy over the nature of the infinite, with Richard FitzRalph, of Balliol College.\u000aIn the 1340s he worked for Richard of Bury, bishop of Durham.\u000a\u000a\u000a== References ==\u000aBarbara Ensign Kretzmann, Norman Kretzmann (eds), The Sophismata of Richard Kilvington, critical edition of the Latin text, New York: Oxford University Press, 1990.\u000aBarbara Ensign Kretzmann, Norman Kretzmann (eds), The Sophismata of Richard Kilvington, introduction, translation, and commentary, Cambridge: Cambridge University Press, 1990.\u000a\u000a\u000a== Notes ==\u000a\u000a\u000a== External links ==\u000aJung, Elzbieta. "Richard Kilvington". Stanford Encyclopedia of Philosophy.
p2
tp3
.