(VRoderick Long
p1
VFrom an alternative name: This is a redirect from a title that is another name such as a pseudonym, a nickname, or a synonym of the target, or of a name associated with the target.\u000aThis redirect leads to the title in accordance with the naming conventions for common names and can help writing. It is not necessary to replace these redirected links with a piped link.\u000aIf this redirect is an incorrect name for the target, then use {{R from incorrect name}} instead.
p2
tp3
.