(VRonald Paulson
p1
VRonald Paulson (born May 27, 1930 in Bottineau, North Dakota), is an American professor of English, a specialist in English 18th-century art and culture, and English artist William Hogarth.\u000a\u000a\u000a== Education ==\u000aPaulson earned a Bachelor of Arts degree from Yale University in 1952, where he was an editorial associate of campus humor magazine The Yale Record. He earned his doctorate degree from Yale in 1958.\u000a\u000a\u000a== Academic career ==\u000aPaulson has taught and held various administrative positions at several universities in the United States, including the University of Illinois from 1959 to 1963 and Rice University from 1963 to 1967. He was the Chairman of the Johns Hopkins University English Department from 1967 to 1975. From 1975 to 1984 he was a professor at Yale University and served as the Director of Graduate Studies in the English Department from 1976 to 1983 and the Director of the British Studies Program from 1976 to 1984.\u000aPaulson returned to Johns Hopkins University in 1984, serving as the Department Chairman from 1985 to 1991.\u000aHe has been a member of the editorial board of the academic journal ELH: English Literary History and was senior editor from 1985 to 2004; he served on the editorial boards of the journals Studies in English Literature; PMLA; Eighteenth-Century Studies; and the Johns Hopkins University Press.\u000a\u000a\u000a== Honors and recognitions ==\u000aPaulson was the Andrew W. Mellon Professor of the Humanities at Johns Hopkins University from 1973 to 1975 and has been the Mayer Professor of Humanities since 1985. He was a member of the Academic and Advisory Committees and Governing Board of the Yale Center for British Art and the Paul Mellon Centre for British Art in London from 1975 to 1984. He has also been a Guggenheim Fellow (1965\u201366, 1986\u201387), an NEH Senior Fellow (1977\u201378), and a fellow of the Rockefeller Foundation (1978, 1987).\u000aIn 1988, Paulson traveled with several humorists from the United States to the Soviet Union as part of a cultural exchange.\u000a\u000a\u000a== Books ==\u000aTheme and Structure in Swift's 'Tale of a Tub (1960)\u000aHogarth's Graphic Works (1965)\u000aThe Fictions of Satire (1967)\u000aSatire and the Novel in Eighteenth-Century England (1967)\u000aHogarth: His Life, Art, and Times (1971)\u000aRowlandson: A New Interpretation (1972)\u000aEmblem and Expression: Meaning in English Art of the Eighteenth Century (1975)\u000aThe Art of Hogarth (1975)\u000aPopular and Polite Art in the Age of Hogarth and Fielding (1979)\u000aLiterary Landscape: Turner and Constable (1982)\u000aRepresentations of Revolution (1789\u20131820) (1983)\u000aBook and Painting: Shakespeare, Milton, and the Bible (1983)\u000aBreaking and Remaking: Aesthetic Practice in England, 1700\u20131820 (1989)\u000aHogarth's Graphic Works (rewritten and reset) (1989)\u000aFigure & Abstraction in Contemporary Painting (1990)\u000aHogarth, Vols. 1\u20133 (1991\u201393)\u000aThe Beautiful, Novel, and Strange: Aesthetics and Heterodoxy (1997)\u000aThe Analysis of Beauty (editor) (1997)\u000aDon Quixote in England: The Aesthetics of Laughter (1998)\u000aThe Life of Henry Fielding (2000)\u000aHogarth's Harlot: Sacred Parody in Enlightenment England (2003)\u000aSin and Evil: Moral VAlues in Literature (2006)\u000aThe Art of Riot in England and America (2010)\u000a\u000a\u000a== References ==
p2
tp3
.