(VTara Smith (philosopher)
p1
VTara A. Smith (born 1961) is a professor of philosophy and holder of the BB&T Chair for the Study of Objectivism and holder of the Anthem Foundation Fellowship for the Study of Objectivism at the University of Texas at Austin.\u000aSmith specializes in moral and political theory. She did her undergraduate work at the University of Virginia and received her doctorate from Johns Hopkins University. Her published works include the books Viable Values: A Study of Life as the Root and Reward of Morality (2000), Moral Rights and Political Freedom (1995), and Ayn Rand's Normative Ethics: The Virtuous Egoist (2006). She is also a contributing author to several essay collections about Ayn Rand's novels. Smith has written in journals such as the Journal of Philosophy, American Philosophical Quarterly, Social Philosophy and Policy, and Law and Philosophy.\u000aSmith has lectured all across the United States including Harvard University, Wheeling Jesuit University, Duke University, University of Pittsburgh, and New York University, and to groups of businessmen. She has also organized conferences, often ones emphasizing objective law.\u000aShe is on the board of The Philosopher's Index and is on the Academic Advisory Council of The Clemson Institute for the Study of Capitalism at Clemson University. Smith is a member of the Ayn Rand Society, which exists within the American Philosophical Association. She is also on the board of directors of the Ayn Rand Institute.\u000a\u000a\u000a== Selected publications ==\u000a\u000a\u000a=== Books ===\u000aMoral Rights and Political Freedom. Lanham, Maryland: Rowman & Littlefield. 1997. ISBN 0-8476-8026-6. \u000aViable Values: A Study of Life as the Root and Reward of Morality. Lanham, Maryland: Rowman & Littlefield. 2000. ISBN 0-8476-9760-6. \u000aAyn Rand's Normative Ethics: The Virtuous Egoist. New York: Cambridge University Press. 2006. ISBN 0-521-86050-4. \u000aJudicial Review in an Objective Legal System. New York: Cambridge University Press. 2015. ISBN 1-107-11449-7. \u000a\u000a\u000a=== Articles ===\u000a"On Deriving Rights to Goods from Rights to Freedom". Law and Philosophy. 11 (3): 217\u2013234. September 1992. doi:10.1007/BF01000643. \u000a"Why a Teleological Defense of Rights Needn't Yield Welfare Rights". Journal of Social Philosophy. 23 (3): 35\u201350. December 1992. doi:10.1111/j.1467-9833.1992.tb00131.x. \u000a"Rights Conflicts: The Undoing of Rights". Journal of Social Philosophy. 26 (2): 139\u2013156. September 1995. doi:10.1111/j.1467-9833.1995.tb00078.x. \u000a"Tolerance & Forgiveness: Virtues or Vices?". Journal of Applied Philosophy. 14 (1): 31\u201341. April 1997. doi:10.1111/1468-5930.00037. \u000a"Reconsidering Zero-Sum Value: It's How You Play the Game". Journal of Social Philosophy. 28 (2): 128\u2013139. September 1997. doi:10.1111/j.1467-9833.1997.tb00381.x. \u000a"Rights, Wrongs, and Aristotelian Egoism: Illuminating the Rights/Care Dichotomy". Journal of Social Philosophy. 29 (2): 5\u201314. September 1998. doi:10.1111/j.1467-9833.1998.tb00104.x. \u000a"Intrinsic Value: Look-Say Ethics". The Journal of Value Inquiry. 32 (4): 539\u2013553. December 1998. doi:10.1023/A:1004333128077. \u000a"The Practice of Pride". Social Philosophy and Policy. 15 (1): 71\u201390. December 1998. doi:10.1017/S0265052500003071. \u000a"The Metaphysical Case for Honesty". The Journal of Value Inquiry. 37 (4): 517\u2013531. December 2003. doi:10.1023/B:INQU.0000019033.95049.1e. \u000a"'Social' Objectivity and the Objectivity of Value" in Machamer, Peter K. & Wolters, Gereon, eds. (2004). Science, Values, and Objectivity. Pittsburgh, Pennsylvania: University of Pittsburgh Press. ISBN 0-8229-4237-2. \u000a"Morality Without the Wink: A Defense of Moral Perfection". Journal of Philosophical Research. 29: 315\u2013331. 2004. doi:10.5840/jpr_2004_6. \u000a"Forbidding Life to Those Still Living" in Mayhew, Robert, ed. (2004). Essays on Ayn Rand's We the Living. Lanham, Maryland: Lexington Books. ISBN 0-7391-0697-X. \u000a"Independence in The Fountainhead" in Mayhew, Robert, ed. (2006). Essays on Ayn Rand's The Fountainhead. Lanham, Maryland: Lexington Books. ISBN 0-7391-1577-4. \u000a"Why Originalism Won't Die \u2013 Common Mistakes in Competing Theories of Judicial Interpretation". Duke Journal of Constitutional Law & Public Policy. 2: 159\u2013215. 2007. \u000a"The Importance of the Subject in Objective Morality: Distinguishing Objective from Intrinsic Value". Social Philosophy and Policy. 25: 126\u2013148. 2008. doi:10.1017/S0265052508080059. \u000a"'Humanity's Darkest Evil': The Lethal Destructiveness of Non-Objective Law" in Mayhew, Robert, ed. (2009). Essays on Ayn Rand's Atlas Shrugged. Lanham, Maryland: Lexington Books. ISBN 978-0-7391-2779-7. \u000a\u000a\u000a== See also ==\u000aAmerican philosophy\u000aList of American philosophers\u000a\u000a\u000a== References ==\u000a\u000a\u000a== External links ==\u000aFaculty page at University of Texas at Austin Department of Philosophy\u000aAcademic review of Ayn Rand's Normative Ethics: The Virtuous Egoist\u000aThe Objective Standard's review of Ayn Rand's Normative Ethics: The Virtuous Egoist\u000aCarrie-Ann Biondi, Review of "Ayn Rand's Normative Ethics: The Virtuous Egoist" Reason Papers 30 (2008)\u000aPage at the Ayn Rand Institute which lists her books and some articles\u000aArchive of Tara Smith's articles at the Capitalism Magazine website
p2
tp3
.