(VTerence Parsons
p1
VTerence Parsons (born 1939) is an American contemporary philosopher of the analytic tradition. Parsons is also a Professor at UCLA in its Department of Philosophy.\u000aHeavily influenced by Alexius Meinong, he wrote Nonexistent Objects (1980), which dealt with possible world theory in order to defend the reality of nonexistent objects.\u000a\u000a\u000a== Works ==\u000aNonexistent Objects, Yale University Press, 1980.\u000aEvents in the Semantics of English, MIT Press, 1990.\u000aIndeterminate Identity, Oxford University Press, 2000.\u000aArticulating Medieval Logic, Oxford University Press, 2014.\u000a\u000a\u000a== See also ==\u000a\u000aRound square copula\u000aNonexistence\u000aParadoxes\u000a\u000a\u000a== External links ==\u000aParson's UCLA website
p2
tp3
.