(VTom Beauchamp
p1
VTom L. Beauchamp is an American philosopher specializing in philosophy of David Hume, moral philosophy, bioethics, and animal ethics. He is Professor of Philosophy at Georgetown University, and Senior Research Scholar at the University's Kennedy Institute of Ethics.\u000aBeauchamp is the author or co-author of several books on ethics, and on the philosophy of David Hume, including Hume and the Problem of Causation (1981, with Alexander Rosenberg), Principles of Biomedical Ethics (1985, with James F. Childress), and The Human Use of Animals (1998, with F. Barbara Orlans et al). He is the co-editor with R.G. Frey of The Oxford Handbook of Animal Ethics (2011). He is also the co-editor of the complete works of Hume, The Critical Edition of the Works of David Hume (1999), published by Oxford University Press.\u000a\u000a\u000a== Education ==\u000aHe earned his BA from Southern Methodist University in 1963, a BD from Yale Divinity School, and PhD in philosophy from Johns Hopkins University in 1970. He is a fellow of the Hastings Center.\u000a\u000a\u000a== Career ==\u000aBeauchamp worked on the staff of the National Commission for the Protection of Human Subjects of Biomedical and Behavioral Research, where he co-wrote the Belmont Report in 1978. He later joined with James Childress to write Principles of Biomedical Ethics (1985), the first major American bioethics textbook. Beauchamp is also an expert on the philosophy of David Hume. He is the coeditor of the complete works of Hume published by Oxford University Press, and together with Alexander Rosenberg is the author of Hume and the Problem of Causation (1981), in which Hume's regularity theory of causation is defended, along with a nonskeptical interpretation of Hume's arguments against induction.\u000aHe has also written extensively about animal rights, and has defended a theory of animal rights which would significantly alter, though would not end, the ways in which non-human animals are currently used.\u000a\u000a\u000a== See also ==\u000aAmerican philosophy\u000aList of American philosophers\u000aList of animal rights advocates\u000aPrinciplism\u000a\u000a\u000a== Notes ==\u000a\u000a\u000a== External links ==\u000aHomepage, Georgetown University.
p2
tp3
.