(VTrenton Merricks
p1
VTrenton Merricks (/\u02c8m\u025briks/) is a philosopher at the University of Virginia. His main fields are metaphysics, epistemology, and philosophy of religion.\u000a\u000a\u000a== Works ==\u000aObjects and Persons (Oxford University Press, 2001)\u000aTruth and Ontology (Oxford University Press, 2007)\u000a\u000a\u000a== See also ==\u000aMereological nihilism\u000aPhilosophy of religion\u000aGrowing block universe\u000a\u000a\u000a== References ==
p2
tp3
.