(VAlasdair Urquhart
p1
VAlasdair Ian Fenton Urquhart /\u02c8\u025crk\u0259rt/, born 20 December 1945, is an emeritus Professor of Philosophy at the University of Toronto. He has made notable contributions to the field of logic, especially non-classical logic. One of his most notable achievements is proving the undecidability of the relevance logic R. He also published numerous papers in major theoretical computer science venues, mostly on mathematical logic topics of relevance to computer science.\u000aA native of Scotland, Urquhart received his MA in Philosophy from the University of Edinburgh in 1967, and his Ph.D. from the University of Pittsburgh in 1973 under the supervision of Alan Ross Anderson and Nuel Belnap.\u000a\u000a\u000a== Selected publications ==\u000a"The Undecidability of Entailment and Relevant Implication." Journal of Symbolic Logic 49(4): 1059-1073 (1984).\u000awith Stephen A. Cook, "Functional Interpretations of Feasibly constructive Arithmetic", Annals of Pure and Applied Logic, 1993; preliminary version at STOC'89\u000a"The Complexity of Decision Procedures in Relevance Logic II", J. Symbolic Logic, Volume 64, Issue 4 (1999), 1774-1802.\u000a\u000a\u000a== References ==\u000a\u000a\u000a== External links ==\u000aCurriculum vitae (1998)\u000aDBLP publications
p2
tp3
.