(VAnne Sjerp Troelstra
p1
VAnne Sjerp Troelstra (born 10 August 1939) is Emeritus professor of pure mathematics and foundations of mathematics at the Institute for Logic, Language and Computation (ILLC) of the University of Amsterdam.\u000aHe is a constructivist logician, who has been influential in the development of intuitionistic logic. With Georg Kreisel, he was a developer of the theory of choice sequences. He also wrote one of the first texts on linear logic, and with H. Schwichtenberg he co-wrote an important book on proof theory.\u000aHe became a member of the Royal Netherlands Academy of Arts and Sciences in 1976.\u000a\u000a\u000a== Notes ==\u000a\u000a\u000a== External links ==\u000aHomepage of A. S. Troelstra\u000aAnne Sjerp Troelstra at the Mathematics Genealogy Project
p2
tp3
.