(VDag Prawitz
p1
VDag Prawitz (born 1936, Stockholm) is a Swedish philosopher and logician. He is best known for his work on proof theory and the foundations of natural deduction.\u000aPrawitz is a member of the Norwegian Academy of Science and Letters, of the Royal Swedish Academy of Letters and Antiquity and the Royal Swedish Academy of Science.\u000a\u000a\u000a== References ==\u000a\u000a\u000a== External links ==\u000aPrawitz's web page at Stockholm University
p2
tp3
.