(VDavid Kolb
p1
VDavid Kolb (born 1939) is an American philosopher and the Charles A. Dana Professor Emeritus of Philosophy at Bates College in Maine.\u000aKolb received a B.A. from Fordham University in 1963 and an M.A. in 1965. He later received a M.Phil. from Yale University in 1970 and a Ph. D. in 1972. Kolb's Dissertation was titled "Conceptual Pluralism and Rationality." Most of Kolb's writing deals with "what it means to live with historical connections and traditions at a time when we can no longer be totally defined by that history." Professor Kolb taught at the University of Chicago before moving to Bates in 1977 and teaching there until 2005, when he took emeritus status.\u000a\u000a\u000a== Works ==\u000aKolb has written many articles and published several books including:\u000aThe Critique of Pure Modernity: Hegel, Heidegger, and After, 1987\u000aPostmodern Sophistications: Philosophy, Architecture, and Tradition, 1990\u000aNew Perspectives on Hegel's Philosophy of Religion, 1992\u000aSocrates in the Labyrinth: Hypertext, Argument, Philosophy, 1994\u000aSprawling Places, 2008\u000a\u000a\u000a== See also ==\u000aAmerican philosophy\u000aList of Bates College people\u000aLists of philosophers\u000aList of American philosophers\u000a\u000a\u000a== References ==\u000a\u000a\u000a== External links ==\u000adkolb.org\u000abates.edu\u000aWorks by or about David Kolb in libraries (WorldCat catalog)
p2
tp3
.