(VDavid Crocker
p1
VDavid A. Crocker (born 4 October 1937), is Senior Research Scholar in the School of Public Policy, at the University of Maryland, he is also the founder and former president of the International Development Ethics Association (IDEA). His work has also been cited by the United Nations Human Development Report.\u000a\u000a\u000a== Education ==\u000aDavid Crocker gained his bachelor's degree in psychology from DePauw University, Greencastle, Indiana, in 1959. He also has three degrees from Yale University (M.Div in Philosophy of Religion 1963, MA in Philosophical Theology and Philosophy of Religion 1965, and a Ph.D in Philosophical Theology and Philosophy of Religion 1970).\u000a\u000a\u000a== Academic career ==\u000aTaught philosophy for 25 years at Colorado State University\u000aUNESCO Chair in Development at the University of Valencia.\u000aFellow of the Human Development and Capability Association.\u000a\u000a\u000a== Media ==\u000aCrocker was one of a number of leading philosophers who, at the 1998 World Congress of Philosophy, were interviewed by Michael Malone for the television series, A parliament of minds: philosophy for a new millennium.\u000a\u000a\u000a== Bibliography ==\u000a\u000a\u000a=== Films ===\u000aMichael S. Malone (host) Michael Tobias (dir) (1999). A parliament of minds: philosophy for a new millennium (Democracy, ethics and the relevance of philosophy / David Crocker) (TV Mini-Series documentary / VHS video). produced for PBS by KTEH/San Jose Public Television and JMT Productions in association with the Wisdom Channel. OCLC 48127065. \u000a\u000a\u000a=== Books ===\u000aCrocker, David (2008). Ethics of global development: agency, capability, and deliberative democracy. Cambridge New York: Cambridge University Press. ISBN 9780521885195. \u000a\u000a\u000a=== Chapters in books ===\u000aCrocker, David A (1995), "Functioning and capability: the foundations of Sen's and Nussbaum's development ethic", in Nussbaum, Martha; Glover, Jonathan, Women, culture, and development: a study of human capabilities, Oxford New York: Clarendon Press Oxford University Press, pp. 153\u2013199, ISBN 9780198289647 \u000aCrocker, David; Robeyns, Ingrid (2009), "Well-being and agency", in Morris, Christopher W, The philosophy of Amartya Sen, Cambridge New York: Cambridge University Press, pp. 86\u201390, ISBN 9780521618069 \u000a\u000a\u000a=== Journal articles ===\u000aCrocker, David A (May 1991). "Toward development ethics". World Development. Elseivier. 19 (5): 457\u2013483. doi:10.1016/0305-750X(91)90188-N. \u000aCrocker, David A (November 1992). "Functioning and capability: the foundations of Sen's and Nussbaum's development ethic". Political Theory. Sage. 20 (4): 584\u2013612. doi:10.1177/0090591792020004003. \u000aCrocker, David A (2007). "Deliberative participation in local development". Journal of Human Development and Capabilities | Special issue: selected papers from the 2006 International Conference of the Human Development and Capability Association. Taylor and Francis. 8 (3): 431\u2013455. doi:10.1080/14649880701462379. \u000a\u000a\u000a== Further reading ==\u000aTobias, Michael; Rothenberg, David; Fitzgerald, J. Patrick (2000). A parliament of minds philosophy for a new millennium. Albany, New York: State University of New York Press. ISBN 9780791444849. \u000a\u000a\u000a== References ==\u000a\u000a\u000a== External links ==\u000aProfile: David Crocker School of Public Policy, University of Maryland\u000aProfile: David Crocker Ethics of Employment\u000aDavid Crocker IMDB profile
p2
tp3
.