(VDov Gabbay
p1
VDov M. Gabbay is Augustus De Morgan Professor Emeritus of Logic at the Group of Logic, Language and Computation, Department of Computer Science, King's College London. He has authored over four hundred and fifty research papers and over thirty research monographs. He is editor of several international Journals, and many reference works and Handbooks of Logic, including the Handbook of Philosophical Logic, the Handbook of Logic in Computer Science (with Samson Abramsky and T. S. E. Maibaum), and the Handbook of Artificial Intelligence and Logic Programming.\u000aHe is Chairman and founder of several international conferences, executive of the European Foundation of Logic, Language and Information and President of the International IGPL Logic Group. He is founder, and joint President of the International Federation of Computational Logic, (UK Charity, Number 1112512). He is also one of the four founders and council member for many years of FoLLI, the Association of Logic, Language and Information, from which he is now retired. He remains a life member.\u000aHe is co-founder with Jane Spurr of College Publications, a not-for-profit, start-up academic publisher, intended to compete with major expensive publishers at affordable prices, and not requiring copyright assignment from authors.\u000a\u000a\u000a== Regular positions ==\u000a1968\u20131970 Instructor, Hebrew University of Jerusalem\u000a1970\u20131973 Assistant Professor of Philosophy, Stanford University\u000a1973\u20131975 Associate Professor of Philosophy, Stanford University\u000a1975\u20131977 Associate Professor, Bar-Ilan University\u000a1977\u20131983 Lady Davis Professor of Logic, Bar-Ilan University\u000a1983\u20131998 Professor of Computing, Imperial College, London\u000a1998\u2013present Professor of Computing, Professor of Philosophy, Augustus De Morgan Professor of Logic, King's College, London\u000a2009\u2013present Special Professor Bar Ilan University\u000a2015-present Professor of Logics, Ashkelon Academic College\u000a\u000a\u000a== See also ==\u000aGabbay's separation theorem\u000a\u000a\u000a== References ==\u000a\u000a\u000a== External links ==\u000aHome page
p2
tp3
.