(VEmma Rush
p1
VEmma Rush, PhD is a lecturer in philosophy and ethics at Charles Sturt University Faculty of Arts, School of Humanities and Social Sciences, notable for her work on sexualisation of children.\u000aIn 2006, Rush worked on a series of reports for The Australia Institute. Two of the reports which she co-authored led to a senate inquiry into the sexualisation of children.\u000aRush has also been consulted by the media, including Australia's ABC News and The Sydney Morning Herald.\u000a\u000a\u000a== Research ==\u000aRush's main areas of research are: environmental ethics and ethics in public life, particularly, sexualisation of children and the corporatisation of child care.\u000a\u000a\u000a== Media ==\u000aRush has acted as a media consultant over issues relating to sexualisation, advertising and pornography debates by ABC Radio, Australia, ABC News, Australia, The Sydney Morning Herald, The Conversation, and Melinda Tankard Reist's website.\u000a\u000a\u000a== Selected bibliography ==\u000a\u000a\u000a=== Ph.D thesis ===\u000aRush, Emma (September 2006). Consume with care: ethics, economics and industrialised world over-consumption (Ph.D. thesis). Melbourne: Department of Philosophy/Centre for Applied Philosophy and Public Ethics, University of Melbourne. OCLC 224910719. \u000a\u000a\u000a=== 2006 papers for The Australia Institute ===\u000a2006 discussion papers for the Australia Institute\u000aRush, Emma (April 2006). Child care quality in Australia (discussion paper number 84). Canberra: The Australia Institute. ISSN 1322-5421. OCLC 156571048.  Pdf version.\u000aRush, Emma; Downie, Christian (June 2006). ABC learning centres: a case-study of Australia's largest child care corporation (discussion paper number 87). Canberra: The Australia Institute. ISSN 1322-5421. OCLC 156757390.  Pdf version.\u000aRush, Emma; La Nauze, Andrea (October 2006). Corporate paedophilia: the sexualisation of children in Australia (discussion paper number 90). Canberra: The Australia Institute. ISSN 1322-5421. OCLC 156752334.  Pdf version.\u000aRush, Emma; La Nauze, Andrea (December 2006). Letting children be children: stopping the sexualisation of children in Australia (discussion paper number 93). Canberra: The Australia Institute. ISSN 1322-5421. OCLC 225513585.  Pdf version.\u000a2006 web papers for the Australia Institute\u000aRush, Emma (February 2006). Skip dipping in Australia (web paper number 85). Canberra: The Australia Institute. OCLC 224947742.  Pdf version.\u000aRush, Emma (April 2006). Skip dipping in Australia (web paper number 85). Canberra: The Australia Institute. OCLC 224947742.  Pdf version.\u000aRush, Emma; Hamilton, Clive (September 2006). The attitudes of Australians to happiness and social well-being (web paper number 90). Canberra: The Australia Institute. OCLC 225280784.  Pdf version.\u000a\u000a\u000a=== Chapters in books ===\u000aRush, Emma (2007), "Plastic fantastic: the sexualisation of children", in Fleetwood, Julian, The sex mook: what is our sex?, Melbourne, Australia: Vignette Press, pp. 108\u2013110, ISBN 9781876110000 \u000aRush, Emma (2007), "Employees' views on quality", in Hill, Elizabeth; Pocock, Barbara; Elliott, Alison, Kids count: better early childhood education and care in Australia, Sydney, Australia: Sydney University Press, pp. 154\u2013178, ISBN 9781920898700 \u000aRush, Emma (2009), "What are the risks of premature sexualisation for children?", in Tankard Reist, Melinda, Getting real: challenging the sexualisation of girls, Melbourne, Australia: Spinifex Press, pp. 41\u201354, ISBN 9781876756758 \u000aRush, Emma (2012), "Children, media and ethics", in Warburton, Wayne; Braunstein, Danya, Growing up fast and furious, Sydney, Australia: The Federation Press, pp. 159\u2013174, ISBN 9781862878235 \u000aRush, Emma (2013), "Ethics of food security", in Farmar-Bowers, Quentin; Higgins, Vaughan; Millar, Joanne, Food security in Australia: challenges and prospects for the future, New York: Springer, pp. 35\u201348, ISBN 9781461444831 \u000a\u000a\u000a=== Journal articles ===\u000aRush, Emma; Gleeson, Brendan; Low, Nicholas (2005). "A multivalent conception of path dependence: The case of transport planning in metropolitan Melbourne, Australia". Environmental Sciences. Taylor and Francis. 2 (4): 391\u2013408. doi:10.1080/15693430500405146. \u000aRush, Emma (December 2011). "Response to Taylor: the full picture of the sexualisation debate". Australasian Journal of Early Childhood. Early Childhood Australia. 36 (4): 111\u2013119.  ISSN 1836-9391\u000aRush, Emma; Mungai, Ndungi wa; Wairire, Gidraph G. (2014). "The challenges of maintaining social work ethics in Kenya". Ethics and Social Welfare, special issue: Ethical Challenges & Human Rights in Africa. Taylor and Francis. 8 (2): 170\u2013186. doi:10.1080/17496535.2014.895401. \u000a\u000a\u000a== References ==\u000a\u000a\u000a== External links ==\u000aProfile page: Dr Emma Rush School of Humanities and Social Sciences, Charles Sturt University\u000aEmma Rush OCLC WorldCat Identities
p2
tp3
.