(VFrank Schmalleger
p1
VFrank Schmalleger (born August 28, 1947) is the director of the Justice Research Association. In 1974, he received a Ph.D. in sociology (with a special emphasis in criminology) from Ohio State University. He is a professor emeritus at the University of North Carolina at Pembroke. He has also been affiliated with Webster University and was part of the online faculty of Connected Education.\u000aSchmalleger is a member of the Advisory Board of APB News Online. and is founder and co-director of the Criminal Justice Distance Learning Consortium. He is also the founding editor of The Justice Professional, and serves as editor for Criminal Justice in the Twenty-first Century, as well as Imprint Advisor for the Criminal Justice Reference Series.\u000a\u000a\u000a== Quotes ==\u000a"In order to communicate knowledge we must first catch, then hold, a person\u2019s interest\u2014be it student, colleague, or policymaker. Our writing, our speaking, our teaching, and our research must be relevant to the problems facing people today, and they must\u2014in some way\u2014help solve those problems."\u000a"It is my hope that the technological and publishing revolutions will combine with growing social awareness to facilitate needed changes in our system; and will supplant self-serving system-perpetuated injustices with new standards of equity, compassion, understanding, fairness, and justice for all."\u000a\u000a\u000a== Employment history ==\u000a1976 - 1994\u2014taught criminal justice at Pembroke State University (since 1996 the University of North Carolina at Pembroke)\u000a1978 - 1994\u2014served as the chair of the Department of Sociology, Social Work, and Criminal Justice\u000a\u000a\u000a== See also ==\u000aAttempt\u000aBurglary\u000aCriminology\u000aInchoate crime\u000aVictimology\u000a\u000a\u000a== Writings by Frank Schmalleger ==\u000aJuvenile Delinquency (2007)\u000aCriminal Justice Today: An Introductory Text for the 21st Century (2006)\u000aCriminal Justice: A Brief Introduction (2002)\u000aCriminology Today (2002)\u000aCanadian Criminology Today (with Volk), 2001\u000aCanadian Criminal Justice Today (with MacAlister, McKenna, and Winterdyk, 2001);\u000aCriminal Justice Today (2001)\u000aCorrections in the Twenty-First Century (2001)\u000aCriminal Law Today (1999)\u000aCrime and the Justice System in America: An Encyclopedia (1997)\u000aTrial of the Century: People of the State of California vs. Orenthal James Simpson (1996)\u000aCareer Paths: A Guide to Jobs in Federal Law Enforcement (1994)\u000aComputers in Criminal Justice (1991)\u000aCriminal Justice Ethics (1991)\u000aFinding Criminal Justice in the Library (1991)\u000aEthics in Criminal Justice (1990)\u000aA History of Corrections (1983)\u000aThe Social Basis of Criminal Justice (1981)\u000a\u000a\u000a== External links ==\u000aCJCENTRAL (official)\u000aSCHMALLEGER.COM
p2
tp3
.