(VGregory Currie
p1
VGregory "Greg" Currie (/\u02c8k\u025c\u02d0ri/) is Professor of Philosophy in the Department of Philosophy at the University of York.\u000a\u000a\u000a== Life and work ==\u000aCurrie was educated at the London School of Economics and the University of California, Berkeley. His first posts were in Australia, at the University of Sydney, and in New Zealand, at the University of Otago (Otago's Philosophy Department was declared the best academic department in New Zealand based on the New Zealand government Research Funding criterion). Until September 2013 he was Professor of Philosophy and Director of Research in Humanities  at the University of Nottingham. Before joining the Nottingham department he was Professor of Philosophy and Head of the School of Arts at Flinders University, Adelaide. He is a Fellow of the Australian Academy of Humanities and a Past President of the Australasian Association of Philosophy.\u000aCurrie is an editor of Mind and Language, an Associate Editor of the Australasian Journal of Philosophy, a Past Fellow of St John's College, Oxford, and has held visiting positions at Clare Hall, Cambridge, the London School of Economics, the Institute for Advanced Study, Australian National University, the University of Maryland, College Park and the University of St Andrews.\u000a\u000a\u000a== Current research ==\u000aHis research currently focuses on the arts, imagination, the nature of delusions, and the role of narrative in our thinking. He is working on a book focusing on the value of literature.\u000a\u000a\u000a== Recent publications ==\u000a\u000a\u000a=== Books ===\u000aNarratives and Narrators (Oxford University Press, 2010).\u000aArts and Minds (Oxford University Press, 2004).\u000aRecreative Minds: Imagination in Philosophy and Psychology (Oxford University Press, 2002) [Develops a theory of the imagination based on the idea of mental simulation.]\u000a\u000a\u000a=== Some recent papers ===\u000aThe irony in pictures. British Journal of Aesthetics, 51(2)2011, 148-167.\u000aArt and the anthropologists. In SHIMAMURA, A., ed., Aesthetic Science, Oxford University Press, 2011.\u000aThe Master of the Masek Beds: Aesthetics and the evolution of mind. In: GOLDIE, P. AND SCHELLEKENS, E., ed., Aesthetics and Psychology Oxford University Press.\u000aThe representation of experience in cinema. In: CHATEAU,D., ed., Subjectivity Amsterdam University Press. 41-52, 2011.\u000aBergman and the film image. Midwest Studies in Philosophy, 34,2010, 323-339.\u000aTragedy. Analysis, 70, 2010, 1-7.\u000aActual art, possible art, and art\u2019s definition, Journal of Aesthetics and Art Criticism, 68: 235\u2013241, 2010.\u000aNarrative and the psychology of character, Journal of Aesthetics and Art Criticism, 67(1).\u000aPoint of view. In: HAGBERG, G., JOST, W., eds. A Companion to the Philosophy of Literature. Blackwell, 2010.\u000aAgency and repentance in The Winter's Tale. In: Bristol, M., ed. Shakespeare and Moral Agency. London: Continuum, 2010.\u000a"Narrative, Imitation, and Point of View", in G.L. Hagberg and W. Jost (eds.), A Companion to the Philosophy of Literature, Chichester: Wiley-Blackwell.\u000a\u000a\u000a== References ==
p2
tp3
.