(VIsaac Malitz
p1
VIsaac Richard Jay Malitz (born 1947, Cleveland, Ohio) is a logician who introduced the subject of positive set theory in his 1976 Ph.D. Thesis at UCLA.\u000a\u000a\u000a== References ==\u000aIsaac (Richard) Jay Malitz \u2013 entry in the Mathematics Genealogy Project
p2
tp3
.