(VJack Copeland
p1
VBrian Jack Copeland (born 1950) is Professor of Philosophy at the University of Canterbury, Christchurch, New Zealand, and author of books on computing pioneer Alan Turing.\u000aHis education includes a BPhil and a DPhil from the University of Oxford in philosophy, where he undertook research on modal and non-classical logic under the supervision of Dana Scott.\u000aJack Copeland is the Director of the Turing Archive for the History of Computing, an extensive online archive on the computing pioneer Alan Turing. He has also written and edited books on Turing. He is one of the people responsible for identifying the concept of hypercomputation and machines more capable than Turing machines.\u000aCopeland has held visiting professorships at the University of Sydney, Australia (1997, 2002), the University of Aarhus, Denmark (1999), the University of Melbourne, Australia (2002, 2003), and the University of Portsmouth, United Kingdom (1997\u20132005). In 2000, he was a Senior Fellow in the Dibner Institute for the History of Science and Technology at the Massachusetts Institute of Technology, United States.\u000aHe is also President of the US Society for Machines and Mentality and a member of the UK Bletchley Park Trust Heritage Advisory Panel. He is the founding editor of The Rutherford Journal, established in 2005.\u000aCopeland was awarded Lecturer of the Year 2010 by the University of Canterbury's student union.\u000a\u000a\u000a== Books ==\u000aArtificial Intelligence: A Philosophical Introduction (Blackwell, 1993, 2nd edition due) ISBN 0-631-18385-X\u000aLogic and Reality Essays on the Legacy of Arthur Prior (Oxford University Press, 1996) ISBN 0-19-824060-0\u000aThe Essential Turing (Oxford University Press, 2004) ISBN 0-19-825080-0\u000aAlan Turing\u2019s Automatic Computing Engine: The Master Codebreaker's Struggle to Build the Modern Computer (Oxford University Press, 2005) ISBN 0-19-856593-3\u000aColossus: The Secrets of Bletchley Park's Codebreaking Computers (Oxford University Press, 2006) ISBN 0-19-284055-X\u000aTuring: Pioneer of the Information Age (Oxford University Press, 2014: Paperback edition) ISBN 978-0198719182\u000a\u000a\u000a== References ==\u000a\u000a\u000a== External links ==\u000aHome page\u000aAlanTuring.net\u000aAlan Turing: Father of the Modern Computer\u000aList of publications from Microsoft Academic Search\u000aJack Copeland at DBLP Bibliography Server
p2
tp3
.