(VJames Childress
p1
VJames Franklin Childress (/\u02c8t\u0283\u026aldr\u025bs/; born October 4, 1940) is a philosopher and theologian mainly concerned with ethics, particularly biomedical ethics. Currently he is the John Allen Hollingsworth Professor of Ethics at the Department of Religious Studies at the University of Virginia and teaches public Policy at the Frank Batten School of Leadership and Public Policy. He is also Professor of Medical Education at this university and directs its Institute for Practical Ethics. He has obtained a B.A. from Guilford College, a B.D. from Yale Divinity School, and an M.A. and Ph.D. from Yale University. He was vice-chairman of the national Task Force on Organ Transplantation, and he has also served on the Board of Directors of the United Network for Organ Sharing (UNOS), the UNOS Ethics Committee, the Recombinant DNA Advisory Committee, the Human Gene Therapy Subcommittee, the Biomedical Ethics Advisory Committee, and several Data and Safety Monitoring Boards for NIH clinical trials. From 1996 to 2001, he served on the presidentially-appointed National Bioethics Advisory Commission. He is a fellow of the Hastings Center, an independent bioethics research institution.\u000aHis works include:\u000awith Tom Beauchamp: Principles of Biomedical Ethics (1985; Oxford University Press, Oxford 2009, 6 ed.).\u000aPractical reasoning in bioethics, Bloomington: Indiana Univ. Pr. 1997.\u000aA new dictionary of Christian ethics, London: SCM Press 1986 (co-edited with John Macquarrie).\u000aWho should decide? Paternalism in health care, New York: Oxford Univ. Pr. 1982.\u000aMoral responsibility in conflicts. Essays on nonviolence, war, and conscience, Baton Rouge: Louisiana State Univ. Pr. 1982.\u000aPriorities in biomedical ethics, Philadelphia: Westminster Pr. 1981.\u000aCivil disobedience and political obligation. A study in Christian social ethics, New Haven: Yale Univ. Pr. 1971.\u000a\u000a\u000a== See also ==\u000aAmerican philosophy\u000aList of American philosophers\u000aPrinciplism\u000a\u000a\u000a== External links ==\u000aPersonal webpage at University of Virginia
p2
tp3
.