(VJeffrey Friedman (political scientist)
p1
VJeffrey Friedman (born March 25, 1959) is a political scientist. He is the founder and editor of Critical Review: A Journal of Politics and Society.\u000aFriedman majored in history and philosophy at Brown University. He received an MA in history at the University of California, Berkeley, in 1985 and a Ph.D. in political science from Yale in 2002. He taught in the Government department at Dartmouth College in 1998, the Social Studies program at Harvard from 1998 to 2000, and the Political Science department at Barnard College, Columbia University from 2001 to 2006.\u000aFriedman is a visiting scholar in the Government Department of the University of Texas at Austin, and the Max Weber Fellow of the Institute for the Advancement of the Social Sciences at Boston University.\u000a\u000a\u000a== Books ==\u000aThe Rational-Choice Controversy: Economic Models of Politics Reconsidered (ed.) Yale University Press (1996).\u000aWhat Caused the Financial Crisis. (ed.) University of Pennsylvania Press (2010).\u000aEngineering the Financial Crisis: Systemic Risk and the Failure of Regulation w/ Wladimir Kraus - University of Pennsylvania Press (2011).\u000a\u000a\u000a== Articles ==\u000a"Locke as Politician." Critical Review 2(2-3): 64-101 (1988).\u000a"The New Consensus: I. The Fukuyama Thesis" Critical Review 3(3). 1989.\u000a"The New Consensus: II. The Democratic Welfare State" Critical Review 4(4). 1990.\u000a"What's Wrong with Libertarianism." Critical Review 11(3): 407-67 (1997).\u000a"Public Ignorance and Democratic Theory." Critical Review 12(4): 397-411 (1998).\u000a"After Democracy, Bureaucracy?" Critical Review 14(1): 469-79 (2000).\u000a"Public Opinion: Bringing the Media Back In." Critical Review 15(3-4): 239-58 (2003).\u000a"Theory Gets a Reality Check: Power, Money and a Little Bit about Love." The Dissident, no. 2.\u000a"Popper, Weber, and Hayek: The Epistemology and Politics of Ignorance." Critical Review 17(1-2): i-lvii (2005).\u000a"The Bias Issue." Critical Review 17(3-4): 221-236 (2005).\u000a"Public Competence In Normative and Positive Theory: Neglected Implications of "The Nature of Belief Systems in Mass Publics." Critical Review 18(1-3): i-xliii (2006).\u000a"'A Weapon in the Hands of the People': The Rhetorical Presidency in Historical and Conceptual Context." Critical Review 19(2-3): 197-240 (2007).\u000a"The Irrelevance of Economic Theory to Understanding Economic Ignorance" (with Stephen Earl Bennett). Critical Review 20(3): 195-258 (2008).\u000a"A Crisis of Politics, Not Economics: Complexity, Ignorance, and Policy Failure." Critical Review 21(2-3): 127-83 (2009).\u000a"'Search' vs. 'Browse': A Theory of Error Grounded In Radical (Not Rational) Ignorance." Critical Review 23(1-2): 73-104 (2011).\u000a"Capitalism and the Jewish Intellectuals." Critical Review 23(1-2): 169-94 (2011).\u000a"Motivated Skepticism or Inevitable Conviction? Dogmatism and the Study of Politics." Critical Review 24(2). 2012.\u000a\u000a\u000a== External links ==\u000aFriedman's page at Critical Review\u000aCauses of the Financial Crisis blog\u000aJeffrey Friedman at Goodreads
p2
tp3
.