(VJohn M. Cooper
p1
VJohn Milton Cooper, Jr. (born 1940) is an American historian, author, and educator. His specialization is late 19th- and early 20th-century American Diplomatic History. Cooper is Professor Emeritus at the University of Wisconsin-Madison.\u000aHis most recent book, Woodrow Wilson: A Biography, was published in 2009. It is described as "the first major biography of America\u2019s twenty-eighth president in nearly two decades." The book was a finalist for the Pulitzer Prize for Biography or Autobiography.\u000a\u000a\u000a== Education ==\u000aPrinceton University, summa cum laude, 1961\u000aColumbia University, PhD, 1968\u000a\u000a\u000a== Books ==\u000aThe Vanity of Power; American Isolationism and the First World War. 1914-1917. Westport, Conn., Greenwood Publishing Corp., 1969\u000aEditor, Causes and Consequences of World War I. Chicago: Quadrangle Books, 1972\u000aWalter Hines Page: The Southerner as American,1855-1918. Chapel Hill: University of North Carolina Press, 1977\u000aThe Warrior and the Priest: Woodrow Wilson and Theodore Roosevelt. Cambridge, Mass.,: Harvard University Press, 1983 ISBN 9780674947511\u000aPivotal Decades: The United States 1900-1920. New York W.W. Norton & Co., 1990\u000aEditor with Charles E. Neu, The Wilson Era: Essays in Honor of Arthur S. Link. Arlington Heights, ILL., Harlan Davidson, Inc., 1991\u000aBreaking the Heart of the World: Woodrow Wilson and the Fight for the League of Nations. New York: Cambridge University Press, 2001\u000aWoodrow Wilson: A Biography. New York: Vintage: 2009 ISBN 9780307265418\u000a\u000a\u000a== References ==\u000a\u000a\u000a== External links ==\u000aFaculty page at the University of Wisconsin-Madison\u000aAuthor interview at the Pritzker Military Library on February 25, 2010\u000aAppearances on C-SPAN
p2
tp3
.