(VKit Fine
p1
VKit Fine (born 26 March 1946) is a Silver Professor of Philosophy and Mathematics at New York University in the NYU Department of Philosophy. He previously taught for several years at the University of Michigan and at UCLA. The author of several books and dozens of articles in international academic journals, he has made notable contributions to the fields of philosophical logic, metaphysics, and the philosophy of language and also has written on ancient philosophy, in particular on Aristotle's account of logic and modality.\u000aHe is also a Distinguished Research Professor in the Department of Philosophy, University of Birmingham, UK.\u000a\u000a\u000a== Life and writings ==\u000aAfter graduating from the University of Oxford (B.A., 1967) Fine received his Ph.D. from the University of Warwick in 1969, under the supervision of A. N. Prior. He was elected a Corresponding Fellow of the British Academy in 2005 and a Fellow of the American Academy of Arts & Sciences in 2006. He has held fellowships from the John Simon Guggenheim Memorial Foundation and the American Council of Learned Societies and is a former editor of the Journal of Symbolic Logic. In addition to his primary areas of research, he has written papers in ancient philosophy, linguistics, computer science, and economic theory.\u000aFine has described his general approach to philosophy as follows: "I\u2019m firmly of the opinion that real progress in philosophy can only come from taking common sense seriously. A departure from common sense is usually an indication that a mistake has been made."\u000aFine has two daughters from his former marriage to Anne Fine. Anne Fine is an author of children's books; Cordelia Fine teaches at a university in Australia; Ione Fine is a professor at the University of Washington.\u000a\u000a\u000a== Bibliography ==\u000aSemantic Relationism. Blackwell, 2007. ISBN 978-1-4051-0844-7\u000aModality and Tense: Philosophical Papers. Oxford University Press, 2005. ISBN 0-19-927871-7\u000aThe Limits of Abstraction. Oxford University Press, 2002. ISBN 0-19-924618-1\u000aReasoning With Arbitrary Objects. Blackwell, 1986. ISBN 0-631-13844-7\u000aWorlds, Times, and Selves (with A. N. Prior). University of Massachusetts Press, 1977. ISBN 0-87023-227-4\u000a\u000a\u000a== Notes ==\u000a\u000a\u000a== References ==\u000aSilver Dialogues: Kit Fine\u000aKit Fine's CV (2004)\u000a\u000a\u000a== External links ==\u000aFine's web page at New York University.\u000aFine's web page at University of Birmingham.\u000aAnnotated Bibliography of Kit Fine's Writings (1970-2016).\u000aKit Fine. Annotated Bibliography of the Studies on His Philosophy.\u000aInterview with 3AM Magazine
p2
tp3
.