(VL. T. F. Gamut
p1
VL. T. F. Gamut was a collective pseudonym for the Dutch logicians Johan van Benthem, Jeroen Groenendijk, Dick de Jongh, Martin Stokhof and Henk Verkuyl.\u000aGamut stands for the Dutch universities of Groningen (G), Amsterdam (am), and Utrecht (ut), then the affiliations of the authors. The initials L. T. F. stand for the discussed topics, respectively, Logic (Dutch: Logica), Language (Dutch: Taal) and Philosophy (Dutch: Filosofie).\u000a\u000a\u000a== References ==\u000a\u000a\u000a== Publications ==\u000aLogica, taal en betekenis I: inleiding in de logica, Het Spectrum, 1982. (Dutch)\u000aLogica, taal en betekenis II: intensionele logica en logische grammatica, Het Spectrum, 1982. (Dutch)\u000aLogic, Language and Meaning, Volume I: Introduction to Logic, University of Chicago Press, 1991. Translation and revision of Logica, taal en betekenis I.\u000aLogic, Language and Meaning, Volume II: Intensional Logic and Logical Grammar, University of Chicago Press, 1991. Translation and revision of Logica, taal en betekenis II.
p2
tp3
.