(VList of Confucianists
p1
VThis is a partial list of people who follow Confucianism, selected for their influence on that belief, or for their fame in other areas.\u000a\u000a\u000a== Early Confucians ==\u000aConfucius (\u5b54\u592b\u5b50 Pinyin: Kong fuzi Wade-Giles: K'ung fu-tzu) \u2013 founder\u000aZisi (\u5b50\u601d)\u000aMencius (\u5b5f\u5b50 Pinyin: Meng zi)\u000aXun Zi (\u8340\u5b50)\u000a\u000a\u000a== Japanese Confucianism ==\u000aFujiwara Seika\u000aHayashi Razan\u000aOgy\u016b Sorai\u000aToju Nakae\u000a\u000a\u000a== Korean Confucianism ==\u000aYi Hwang\u000aYi I\u000a\u000a\u000a== Neo-Confucians ==\u000aWang Yangming \u2013 important Idealist Neo-Confucian.\u000aZhang Zai \u2013 pioneering Neo-Confucian.\u000aZhou Dunyi \u2013 Song Dynasty philosopher.\u000aZhu Xi \u2013 one of the leading Neo-Confucians of the Song Dynasty.\u000a\u000a\u000a== New Confucians ==\u000aTu Wei-Ming \u2013 advocate of "New Confucianism"\u000aXiong Shili \u2013 founding figure in "New Confucianism"\u000aMa Yifu \u2013 founding figure in "New Confucianism"\u000a\u000a\u000a== Western Confucians or scholars of Confucianism ==\u000aPhilip J. Ivanhoe\u000aRobert Cummings Neville\u000a\u000a\u000a== Other ==\u000aWang Fuzhi\u000aHuang Zongxi\u000aGu Xiancheng\u000a\u000a\u000a== References ==\u000a\u000a\u000a== See also ==\u000aDisciples of Confucius\u000aList of people by belief
p2
tp3
.