(VMichael Davis (philosopher)
p1
VMichael Davis (born 6 February 1943) is an American philosopher specializing in professional ethics. He is Professor of Philosophy at the Illinois Institute of Technology, and Senior Fellow at its Center for the Study of Ethics in the Professions.\u000aDavis is the author of several books, including Accountability in the Professions (1995), Profession, Code, and Ethics (2002), and Engineering Ethics (2005).\u000a\u000a\u000a== Background ==\u000aDavis received his PhD in 1972 from the University of Michigan for a dissertation entitled "Representation and Consent: An Inquiry into the Foundations of Political Obligation." Before moving to the Illinois Institute of Technology in 1986, he taught at the University of Illinois at Chicago, Illinois State University, and Case Western Reserve University.\u000a\u000a\u000a== Research interests ==\u000aDavis's work in engineering ethics has won him four large grants from the National Science Foundation and an entry in Who's Who in Science and Engineering. His papers on whistleblowing and conflict of interest are often reprinted. He is the author of eight books and almost 200 articles and chapters, and editor (or co-editor) of five other books.\u000a\u000a\u000a== Bibliography ==\u000awith Frederick Elliston, Ethics and the Legal Profession (Prometheus Books, 1986)\u000aTo Make the Punishment Fit the Crime (Westview Press, 1992)\u000awith Elliot D. Cohen, AIDS: Crisis in Professional Ethics (Temple University Press, 1994)\u000aAccountability in the Professions (1995)\u000aJustice in the Shadow of Death: Rethinking Capital and Lesser Punishments (Rowman & Littlefield, 1996)\u000aThinking like an Engineer (Oxford University Press, 1998)\u000aEthics and the University (Routledge, 1999)\u000awith Andrew Stark, Conflict of Interest in the Professions (Oxford University Press, 2001)\u000aProfession, Code, and Ethics (Ashgate, 2002)\u000aActual Social Contract and Political Obligation (Edwin Mellen Press, 2002)\u000aEngineering Ethics (Ashgate, 2005)\u000aCode Writing: How Software Engineering Became a Profession (Center for the Study of Ethics in the Professions, 2007)\u000awith Elliot D. Cohen and Frederick Elliston, Ethics and the Legal Profession, 2nd ed (Prometheus Book, 2009)\u000aThinking like an Engineer: Studies in the Ethics of a Profession (Zhejiang University Press, 2012)\u000aThe Architect\u2019s Professional Ethics: Readings and Problems (forthcoming)\u000a\u000a\u000a== See also ==\u000aAmerican philosophy\u000aList of American philosophers\u000a\u000a\u000a== Notes ==\u000a\u000a\u000a== External links ==\u000aIIT faculty page
p2
tp3
.