(VNorman Daniels
p1
VNorman Daniels, born in 1942, is an American political philosopher and philosopher of science, political theorist, ethicist, and bioethicist at Harvard University. Before his career at Harvard, Daniels had built his career as a medical ethicist at Tufts University School of Medicine, also in Boston.\u000a\u000a\u000a== Teaching positions ==\u000aDaniels is Mary B. Saltonstall Professor of Population Ethics and Professor of Ethics and Population Health in the Department of Global Health and Population at the Harvard School of Public Health in Boston.\u000aPreviously, and for 33 years, he had taught political philosophy at Tufts University in Medford, Massachusetts. At Tufts University, he was Goldthwaite Professor and Chair of the Philosophy Department, and at Tufts University School of Medicine, he was Professor of Medical Ethics (1969\u20132002).\u000a\u000a\u000a== Education ==\u000a1970 - Harvard University, Ph.D. (Philosophy), awarded the Plympton Dissertation Prize, 1971\u000a1966 - Balliol College, Oxford, B.A. (equivalent to M.A. in USA) (Philosophy and Psychology, First Honors)\u000a1964 - Wesleyan University, B.A. (English, Summa cum Laude)\u000a\u000a\u000a== Personal ==\u000aDaniels is married to neuro-psychologist Anne Lacy Daniels (Ed.D.). They have one son, Noah M. Daniels, a postdoctoral research associate at MIT.\u000aWith Jared Israel, Daniels co-chaired the Harvard chapter of the Students for a Democratic Society in 1969.\u000aIn a public letter to his fraternity brothers at Wesleyan, Daniels wrote: "At Harvard, I ended up co-chair of SDS and gave the speech on the steps of University Hall April 9, 1969, that began the take-over of that administration building and thus led to the Harvard Strike. I would have been fired as a teaching fellow, so I followed my advisors advice and quit that position to take a part-time job at Tufts, teaching philosophy of science and political philosophy. I stayed 33 years."\u000a\u000a\u000a== Professional affiliations ==\u000aFormerly Goldthwaite Professor and Chair of the Philosophy Department at Tufts University and Professor of Medical Ethics at Tufts Medical School, 1969\u20132002\u000aFellow, Hastings Center\u000aMember, Institute of Medicine\u000aFounding Member of the National Academy of Social Insurance\u000aMember, International Society for Equity in Health\u000aMember, Medicare Coverage Advisory Commission (Bill Clinton administration)\u000aMember, Ethics Working Group of the Clinton White House Health Care Task Force (Spring 1993)\u000aMember, Advisory Board of the CIHR-Institute of Population and Public Health (Fall 2009)\u000aMember, Ethics Advisory Board of the Centers for Disease Control (Fall 2009 - Fall 2012)\u000aMember, Public Health Service Expert Panel on Cost Effectiveness and Clinical Preventive Medicine\u000aMember, National Academy of Social Insurance study panel on the social role of Medicare\u000aMember, Century Fund task force on Medicare reform\u000aConsulting\u000aHe has consulted with organizations, commissions, and governments in the U.S. and abroad on issues of justice and health policy\u000aConsultant, United Nations\u000aConsultant, World Health Organization\u000aPresident's Commission for the Study of Ethical Problems in Medicine\u000a\u000a\u000a== Books ==\u000aThomas Reid's`Inquiry': the Geometry of Visibles and the Case for Realism (1974; Stanford, 1989)\u000aReading Rawls (1975; Stanford, 1989)\u000aJust Health Care (Cambridge, 1985)\u000aAm I My Parents' Keeper? An Essay on Justice Between the Young and the Old (Oxford, 1988)\u000aSeeking Fair Treatment: From the AIDS Epidemic to National Health Care Reform Oxford, 1995)\u000aJustice and Justification: Reflective Equilibrium in Theory and Practice (Cambridge University Press, 1996)\u000a(with Donald Light and Ronald Caplan) Benchmarks of Fairness for Health Care Reform (Oxford, 1996)\u000a(with Allen Buchanan, Dan Brock, and Dan Wikler) From Chance to Choice: Genetics and Justice. Cambridge University Press. ISBN 0-521-66977-4. (Cambridge, 2000)\u000a(with Bruce Kennedy and Ichiro Kawachi) Is Inequality Bad for Our Health? (Beacon Press, 2000)\u000a(with James Sabin) Setting Limits Fairly: Can We Learn to Share Medical Resources? (Oxford, 2002;2nd ed., 2008)\u000aJust Health: Meeting Health Needs Fairly (Cambridge, 2008).\u000a[Source: Bibliography of books, from personal webpage, which also includes peer-reviewed journal articles and book chapters published since 1965]\u000a\u000a\u000a== Awards ==\u000aMember, Institute of Medicine\u000aFellow, The Hastings Center\u000aFounding Member, National Academy of Social Insurance\u000aFounding Member, International Society for Equity in Health\u000aFounding Member, National Cancer Policy Board, established by the Institute of Medicine and the Commission on the Life Sciences (served He served four years)\u000aFounding Member, Advisory Board of the Open Society Foundation project on Medicine as a Profession, and on the International Bioethics Advisory Board of PAHO. He served recently on an IOM Committee on the use of Cost Effectiveness Analysis in regulatory contexts.\u000a\u000a\u000a== Fellowships and grants ==\u000aGreenwall Foundation\u000aNational Endowment for the Humanities\u000aNational Institutes of Health\u000aNational Library of Medicine\u000aNational Science Foundation\u000aRetirement Research Foundation\u000aRobert Wood Johnson Foundation\u000aInvestigator Award in Health Policy Research, Robert Wood Johnson Foundation, 1997 (for the period 1998-2001)\u000a"Limit-Setting in Managed Care and Other Health Delivery Systems: Legitimacy, Fair Process, and the Goals of Health Care Reform"\u000aRockefeller Foundation grant, international adaptation of the benchmarks\u000a\u000a\u000a== See also ==\u000aAmerican philosophy\u000aList of American philosophers\u000aList of Jewish American philosophers\u000a\u000a\u000a== References ==\u000a\u000a\u000a== External links ==\u000aHSPH Faculty Site for Prof. Norm Daniels\u000aPublications of Prof. Norm Daniels\u000a'Norman Daniels Symposium' lectures/papers presented published in the Journal of Medical Ethics (January 2009, Volume 35, Number 1), published by British Medical Journal and the Institute of Medical Ethics\u000aHSPH-sponsored personal Faculty website for Prof. Norman O. Daniels, PhD
p2
tp3
.