(VPaul R. Patton
p1
VPaul Robert Patton (born 1950) is Scientia Professor of Philosophy in the School of History and Philosophy at the University of New South Wales, Sydney, Australia, where he has been since 2002. Patton is known for his publications and conference presentations that have brought recognition to Australian Continental political philosophy.\u000a\u000a\u000a== Life and career ==\u000aPatton received a B.A. and M.A. from the University of Sydney, and, in 1979, received a Doctorat D'Universite from Paris VIII (Vincennes). Before he took up his professorship at University of New South Wales, Patton lectured at the Australian National University, in Canberra, Australia, and the University of Sydney. Patton is a member of the Australasian Association of Philosophy.\u000aPatton has published widely on aspects of 20th-century French philosophy. Including focus on the works of Deleuze, Derrida and Foucault. He edited Volume 7 (Post-Postructuralism) of The History of Continental Philosophy, which was published by Acumen in 2010.\u000aBetween 2000 and 2006, Patton appeared in a number of ABC radio broadcasts, including 'The Descent of Man,'[3] on ABC Radio National's Science Show in 2000, 'Deleuze and Democracy' in 2005, and 'Where philosophy gets done' in 2006, both on the show 'The Philosopher's Zone'.\u000aIn 1994 and 1997 Patton was a Visiting Fellow at the Humanities Research Centre, at Australian National University. In 2005, he was a Visiting Fellow of the Scots Philosophical Society, at the University of Dundee in Scotland.\u000a\u000a\u000a== Books ==\u000a(2000) Deleuze and the Political. Routledge.\u000a(2010) Deleuzian Concepts: Philosophy, Colonization, Politics. Stanford University Press.\u000aTranslator: (1994) Deleuze, Gilles. Difference and Repetition. Columbia University Press\u000a\u000a\u000a== See also ==\u000aAustralasian Society for Continental Philosophy\u000a\u000a\u000a== References ==\u000a\u000a\u000a== External links ==\u000aPatton at UNSW\u000aAustralasian Association of Philosophy Expert Pages: Paul Patton. (Accessed 28 Oct 2007).\u000aPaul Patton's home page at UNSW. (Accessed 13 January 2014).\u000aPhilosophy Compass, Paul Patton page. (Accessed 28 Oct 2007).
p2
tp3
.