(VPyotr Novikov
p1
VPyotr Sergeyevich Novikov (Russian: \u041f\u0451\u0442\u0440 \u0421\u0435\u0440\u0433\u0435\u0301\u0435\u0432\u0438\u0447 \u041d\u043e\u0301\u0432\u0438\u043a\u043e\u0432; 15 August 1901, Moscow, Russian Empire \u2013 9 January 1975, Moscow, Soviet Union) was a Soviet mathematician.\u000aNovikov is known for his work on combinatorial problems in group theory: the word problem for groups, and Burnside's problem. For proving the undecidability of the word problem in groups he was awarded the Lenin Prize in 1957.\u000aIn 1953 he became a corresponding member of the USSR Academy of Sciences and in 1960 he was elected a full member.\u000aHe was married to the mathematician Lyudmila Keldysh (1904\u20131976). The mathematician Sergei Novikov is his son. Sergei Adian and Albert Muchnik were among his students.\u000a\u000a\u000a== References ==\u000a\u000a\u000a== External links ==\u000aO'Connor, John J.; Robertson, Edmund F., "Pyotr Novikov", MacTutor History of Mathematics archive, University of St Andrews .\u000aPyotr Novikov at the Mathematics Genealogy Project
p2
tp3
.