(VTripp York
p1
VFred "Tripp" York is an activist, a professor of religious studies, and a prolific Mennonite writer (B.A., Trevecca Nazarene University; M.T.S., Duke University; Ph.D., Garrett-Evangelical Theological Seminary). His writings span a wide range of genres and subjects including: animals, martyrdom, politics, violence, religious satire and comics. His most popular work is his satirical search for Satan in The Devil Wears Nada.\u000aHe is the co-creator and co-editor of The Peaceable Kingdom Series.\u000aYork belongs to the Mennonite tradition that has a 500-year history of Christian pacifism. He has written extensively on the North American Christians' complicity with power and suggests a return to a more diasporic understanding of Christian practice. He emphasizes the lives of Christian anarchists such as Dorothy Day, and Daniel and Philip Berrigan.\u000aHe teaches at Virginia Wesleyan College in Norfolk, VA. He previously taught at Elon University and Western Kentucky University.\u000a\u000a\u000a== Works ==\u000aThe End of Captivity? A Primate's Reflections on Zoos, Conservation, and Christian Ethics. Cascade Books, 2015.\u000aA Faith Encompassing All Creation. Cascade Books, 2014.\u000aA Faith Embracing All Creatures. Cascade Books, 2013.\u000aA Faith Not Worth Fighting For. Cascade Books, 2012.\u000aThe Devil Wears Nada. Cascade Books, 2011.\u000aThird Way Allegiance: Christian Witness in the Shadow of Religious Empire. Cascadia Publishing, 2011.\u000aThe Gift of Difference: Radical Orthodoxy, Radical Reformation, with Chris K. Huebner, CMU Press, 2010.\u000aDonkeys and Kings. Resource Publications, 2010.\u000aLiving on Hope While Living in Babylon: The Christian Anarchists of the 20th Century. Wipf & Stock, 2009.\u000aAnesthesia: A Brief Reflection on Contemporary Aesthetics. Seaburn Press, 2008.\u000aThe Purple Crown: The Politics of Martyrdom. Herald Press, 2007.\u000aCalculated Futures: Theology, Ethics and Economics, with D. Stephen Long and Nancy Ruth Fox. Baylor University Press, 2007.\u000a\u000a\u000a== References ==\u000a\u000a\u000a== External links ==\u000aAuthor's articles at Christian Ethics Today
p2
tp3
.