(VVladimir Andreyevich Uspensky
p1
VVladimir A. Uspensky (Russian: \u0412\u043b\u0430\u0434\u0438\u0301\u043c\u0438\u0440 \u0410\u043d\u0434\u0440\u0435\u0301\u0435\u0432\u0438\u0447 \u0423\u0441\u043f\u0435\u0301\u043d\u0441\u043a\u0438\u0439; born November 27, 1930, Moscow) is a Russian mathematician, linguist, writer, doctor of physics and mathematics (1964). He is the author of numerous papers on mathematical logic and linguistics. In addition, he has also penned a number of memoir essays. Uspensky initiated a reform of linguistic education in Russia.\u000a\u000a\u000a== Biography ==\u000aUspensky graduated in 1952 from the MSU Faculty of Mechanics and Mathematics (Lomonosov Moscow State University). He was a student of Andrey Kolmogorov. He is the head of the Chair of Mathematical Logic and Theory of Algorithms in the MSU Faculty of Mechanics and Mathematics (1995) and one of the founders of the Structural Linguistics branch (now the Theoretical and Applied Linguistics branch) in the MSU Faculty of Philology, where he also teaches. He is the author of many books and of over 100 research papers. He has prepared 25 candidates and 4 doctors of sciences. His book "The Apology of Mathematics" received in 2010 the \u201cEnlightener" award in the field of natural and exact sciences. He is a distinguished professor at the Moscow State University (1998). His brother Boris Uspensky is a distinguished Russian philologist and mythographer.\u000a\u000a\u000a== References ==\u000aV.A. Uspensky. \u0422\u0440\u0443\u0434\u044b \u043f\u043e \u043d\u0435\u043c\u0430\u0442\u0435\u043c\u0430\u0442\u0438\u043a\u0435. \u041c.: \u041e\u0413\u0418, 2002, \u0442. I\u2014II. ISBN 5-94282-087-2 (\u0442.1), ISBN 5-94282-088-0 (\u0442.2)\u000aChapter from the book "\u0410\u043f\u043e\u043b\u043e\u0433\u0438\u044f \u043c\u0430\u0442\u0435\u043c\u0430\u0442\u0438\u043a\u0438"\u000aV.A. Uspensky: Seven reflections on the themes of philosophy of mathematics\u000aV.A. Uspensky: Lecture on mathematics as part of the culture, and the Poincare conjecture\u000a\u000a\u000a== External links ==\u000aMathematics Genealogy Project entry\u000aMSU home page\u000aDynkin Collection entry with video interviews\u000aRussian listing of publications\u000aMath-Net.ru list of publications, including video lectures
p2
tp3
.