(VBrian Leftow
p1
V'''Brian Leftow''' is the [[Nolloth Professor of the Philosophy of the Christian Religion]] at [[Oriel College]], [[University of Oxford|Oxford]], succeeding [[Richard Swinburne]], who retired in 2002.  Leftow's research interests include [[metaphysics]], [[medieval philosophy]], and [[philosophical theology]].<ref>[http://www.closertotruth.com/participant/Brian-Leftow/54 "Closer to Truth"]</ref>  He is a graduate of [[Grove City College]], and earned his M.A and Ph.D. at [[Yale University]].<ref>Fordham University [http://www.fordham.edu/philosophy/Faculty/leftow.htm Fordham University]</ref>  Before occupying the Nolloth chair at the University of Oxford, Leftow taught at [[Fordham University]].\u000a\u000a== Selected works ==\u000a*''God and Necessity'' (2012)\u000a*''Divine Ideas'', Ithaca: [[Cornell University Press]], forthcoming.\u000a*''Matter, Parts and Number: Aquinas' Philosophy of Mathematics''. Oxford, forthcoming.\u000a*"Anti Social Trinitarianism," in Steven Davis and Daniel Kendall, eds., ''The Trinity''. New York: Oxford University Press, 1999.\u000a*"The Eternal Now," in Gregory Ganssle and David Woodruff, eds., ''God and Time''. Oxford: Oxford University Press, 2002.\u000a*"Necessary Being", and "Concepts of God," in ''The Encyclopedia of Philosophy''. London: Routledge Press, 1998.\u000a*"Anselm on the Cost of Salvation," ''Medieval Philosophy and Theology''. 1997.\u000a*"Eternity," in ''The Cambridge Companion to Philosophy of Religion'', ed. [[Philip Quinn]] and [[Charles Taliaferro]]. Cambridge: Cambridge University Press, 1997.\u000a*"Divine Action and Embodiment," Proceedings of the American Catholic Philosophical Association, 1997.\u000a*"Can Philosophy Argue God's Existence?" in The Rationality of Belief and The Plurality of Faith, ed.  Tom Senor. Ithaca, NY: Cornell University Press, 1995.\u000a*''Time and Eternity''. Ithaca, NY: Cornell University Press, 1991.\u000a\u000a== References ==\u000a{{Reflist}}\u000a\u000a{{DEFAULTSORT:Leftow, Brian}}\u000a[[Category:20th-century philosophers]]\u000a[[Category:Analytic philosophers]]\u000a[[Category:Christian philosophers]]\u000a[[Category:Metaphysicians]]\u000a[[Category:Philosophers of religion]]\u000a[[Category:Living people]]\u000a[[Category:Grove City College alumni]]\u000a[[Category:Yale University alumni]]\u000a[[Category:Fordham University faculty]]\u000a[[Category:Nolloth Professors of the Philosophy of the Christian Religion]]\u000a[[Category:Fellows of Oriel College, Oxford]]\u000a[[Category:Converts to Christianity]]
p2
tp3
.