(VCarveth Read
p1
V'''Carveth Read''' (1848&ndash;1931) was a 19th and 20th century [[United Kingdom|British]] philosopher and logician.\u000a\u000a==Life==\u000aHe was born 16, March 1848 in Falmouth, Cornwall, England.<ref>Nature 128, 1067\u20131067 (26 December 1931) \u2013 doi:10.1038/1281067a0</ref> He was the third son of Edward Read and Elizabeth Truscott.<ref>''Cambridge Alumni Database'' (''CAD''), University of Cambridge (http://venn.lib.cam.ac.uk/)</ref>  He attended the University of Cambridge (Christ's College).<ref>C. Spearman. The Life Work of Carveth Read, 1848-1931, British Journal of Psychology, v. 23, no. 1 (July 1932), pp. 1\u20134.</ref> He received a B.A. (Moral Sciences Tripos, 1st) in 1873 and an M.A. in 1877.  He was the Hilbert travelling scholar, studying at Leipzig and Heidelberg Universities in 1874-1877.  In 1877 he married Evelyn Thompson.<ref>''CAD''.</ref>  From 1878 he lectured at Wren's 'Coaching' establishment (located at 7 Powis Square, Westbourne Park, London).<ref>Warwick, Andrew.  ''Masters of Theory: Cambridge and the Rise of Mathematical Physics'', Chicago: University of Chicago Press (2003), p. 93.</ref> He was [[Grote Chair of the Philosophy of Mind and Logic|Grote professor of philosophy of mind and logic]] <ref>Spearman (July 1932).</ref> at the [[University College London]] (UCL) from 1903 to 1911.  From 1911 to 1921 he was Lecturer in Comparative Psychology at UCL.<ref>Spearman (July 1932).</ref> He died 6 December 1931 in Solihull, Warwickshire, England.<ref>Nature 128, 1067\u20131067.</ref>\u000a\u000a==Work==\u000aIn the preface to the fourth edition of his book ''Logic: Deductive and Inductive'' (1920), he identifies his significant influences.  He states, "the work may be considered, on the whole, as attached to the school of Mill; to whose System of Logic, and to Bain's Logic, it is deeply indebted. Amongst the works of living writers, the Empirical Logic of Venn and the Formal Logic of Keynes have given me most assistance."<ref>C. Read, "Logic: Deductive and Inductive," London: Simkin, Marshall (1920), p. vi.</ref>  In Chapter 22 of Logic, Read says: "It is better to be vaguely right than exactly wrong", the original source of the much quoted aphorism "It is better to be roughly right than exactly wrong" that is often, incorrently attributed to John Maynard Keynes.\u000a\u000a==Bibliography==\u000a* ''Theory in Logic'' (1878)\u000a* ''Logic: Deductive and Inductive'' (1898 \u2013 first edition)\u000a* ''The Metaphysics of Nature'' (1905 - first edition)\u000a* ''Natural and Social Morals'' (1909)\u000a* ''The Origin of Man and His Superstitions'' (1920)\u000a\u000a==References==\u000a{{Reflist}}\u000a\u000a==External links==\u000a* {{Gutenberg author |id=Read,+Carveth | name=Carveth Read}}\u000a* {{Internet Archive author |sname=Carveth Read}}\u000a\u000a{{Authority control}}\u000a\u000a{{DEFAULTSORT:Read, Carveth}}\u000a[[Category:1848 births]]\u000a[[Category:1931 deaths]]\u000a[[Category:19th-century philosophers]]\u000a[[Category:20th-century philosophers]]\u000a[[Category:British logicians]]\u000a[[Category:British philosophers]]\u000a[[Category:Academics of University College London]]\u000a\u000a\u000a{{UK-philosopher-stub}}
p2
tp3
.