(VDavid Wiggins
p1
V\u000a{{for|the Iowa Supreme Court Justice|David Wiggins (jurist)}}\u000a'''David Wiggins''' (born 8 March 1933) is a [[United Kingdom|British]] [[Ethics|moral]] [[philosopher]], [[metaphysics|metaphysician]], and philosophical [[logician]] working especially on [[identity (philosophy)|identity]] and issues in meta-ethics.  His 2006 book, ''Ethics.  Twelve Lectures on the Philosophy of Morality'' defends a position he calls "moral objectivism".\u000a\u000a== Life ==\u000aWiggins read philosophy at [[Brasenose College, Oxford]], and had [[J. L. Ackrill]] as a tutor.<ref>{{cite web| title = Professor J.L. Ackrill| work = Obituary| publisher = Times Newspapers\u000a| date = 2007-12-20 | url = http://www.timesonline.co.uk/tol/comment/obituaries/article3074592.ece | accessdate =2008-06-19  | location=London}}</ref> He was the [[Wykeham Professor]] of Logic from 1993 to 2000. He was president of the [[Aristotelian Society]] from 1999 to 2000. He is Fellow of the British Academy, and Foreign Honorary Member of the American Academy of Arts and Sciences.\u000a\u000a== Work ==\u000aAccording to philosopher Harold Noonan:\u000a\u000a:The most influential part of Wiggins's work has been in metaphysics, where he has developed a fundamentally Aristotelian conception of substance, enriched by insights drawn from Putnam (1975) and Kripke (1980). His works also contain influential discussions of the problem of personal identity, which Wiggins elucidates ''via'' a conception that he calls the "Animal Attribute View."<ref>Noonan, H., 2005.  "David Wiggins."  In ''Encyclopedia of Philosophy''. London: Macmillan. [http://www.encyclopedia.com/article-1G2-3446802122/wiggins-david-1933.html (excerpt)]</ref>\u000a\u000a==Legacy==\u000aWiggins' distinguished pupils include:\u000a:[[John McDowell]]\u000a:[[Derek Parfit]]\u000a:[[Jonathan Westphal]]\u000a:[[Timothy Williamson]]\u000a\u000a== Selected writings ==\u000a===Books===\u000a* ''Ethics.  Twelve Lectures on the Philosophy of Morality'' (Cambridge, 2006)\u000a* ''Sameness and Substance Renewed'' (Cambridge, 2001)\u000a* ''Needs, Values, Truth: Essays in the Philosophy of Value '' (Oxford, 1987; second edition 1998)\u000a* ''Sameness and Substance'' (Oxford, 1980)\u000a* ''Truth, Invention, and the Meaning of Life'' (Proceedings of the British Academy, 1976)\u000a* ''Identity and Spatio-Temporal Continuity'' (Oxford, 1967)\u000a\u000a===Articles===\u000a* "A Sensible Subjectivism?" (''Needs, Values, Truth: Essays in the Philosophy of Value'' (New York: Oxford University Press, 1987), 185-214)\u000a* "Weakness of Will Commensurability, and the Objects of Deliberation and Desire" (P''roceedings of the Aristotelian Society'', 1978)\u000a* "Towards a reasonable libertarianism" (''Essays on Freedom of Action'', 1973 - Routledge & Kegan Paul)\u000a* "On Sentence-sense, Word-sense and Difference of Word-sense: Towards a Philosophical Theory of Dictionaries" (1971)<ref>In Danny D. Steinberg and Leon A. Jakobovits (edd.) Semantics: An Interdisciplinary Reader in Philosophy, Linguistics and Psychology (Cambridge: Cambridge University Press, 1971), pp. 14-34.</ref> [http://cavehill.uwi.edu/bnccde/PH38D/wiggins.html (link)]\u000a\u000a==References==\u000a{{Reflist}}\u000a\u000a==External links==\u000a* [http://www.philosophy.ox.ac.uk/the_faculty/philosophy_centre/ryle_room Picture of Wiggins] - on the Ryle Room page.\u000a\u000a{{Authority control}}\u000a{{DEFAULTSORT:Wiggins, David}}\u000a[[Category:1933 births]]\u000a[[Category:Living people]]\u000a[[Category:20th-century philosophers]]\u000a[[Category:British philosophers]]\u000a[[Category:21st-century philosophers]]\u000a[[Category:Analytic philosophers]]\u000a[[Category:Metaphysicians]]\u000a[[Category:Alumni of Brasenose College, Oxford]]\u000a[[Category:Wykeham Professors of Logic]]\u000a[[Category:Moral philosophers]]\u000a[[Category:British logicians]]\u000a[[Category:Presidents of the Aristotelian Society]]\u000a\u000a\u000a{{UK-philosopher-stub}}
p2
tp3
.