(VDavid Schmidtz
p1
V{{Infobox philosopher\u000a| region = [[Western philosophy]]\u000a| era = [[Contemporary philosophy]]\u000a| color = #B0C4DE\u000a| image =\u000a| caption =\u000a| name = David Schmidtz\u000a| birth_date = 1955\u000a| death_date =\u000a| alma_mater = [[University of Saskatchewan]] <br> [[University of Arizona]]\u000a| school_tradition = [[Political philosophy]]\u000a| main_interests = [[Rational choice]], [[game theory]], [[political philosophy]]\u000a| notable_ideas = Justice as a map\u000a| influences = [[Vernon L. Smith|Vernon Smith]], [[Robert Nozick]], [[Jules Coleman]]\u000a| influenced = [[Jason Brennan]]\u000a| signature =\u000a| website ={{url|http://www.davidschmidtz.com/}}\u000a}}\u000a\u000a{{Libertarianism sidebar}}\u000a'''David Schmidtz''' (born 1955) is a Canadian-American philosopher who has appointments in the philosophy and economics departments and the McGuire Center for Entrepreneurship at the [[University of Arizona]].<ref>{{cite web|title=David Schimdtz: Kendrick Professor of Philosophy and joint Professor of Economics|url=http://philosophy.arizona.edu/schmidtz|publisher=University of Arizona|accessdate=25 July 2014}}</ref>\u000a\u000a==Education==\u000aSchmidtz grew up in [[Humboldt, Saskatchewan]], [[Canada]].<ref>{{cite news|last1=Whetzel|first1=Melissa|title=College Creates Awareness on Economic Topics with Adam Smith Week|url=http://today.cofc.edu/2013/03/18/college-create-awareness-on-economic-topics-with-adam-smith-week/|accessdate=25 July 2014|publisher=College of Charleston|date=2013-03-18}}</ref> In 1983, he received his B.A. in philosophy from the [[University of Saskatchewan]]. He earned an M.A. in philosophy from the University of Arizona in 1985, and an M.A. in economics, also from the University of Arizona, in 1987. Schmidtz earned his PhD at the University of Arizona under the direction of [[Allen Buchanan]]. He also studied with [[Joel Feinberg]] and [[Keith Lehrer]], [[Holly Martin Smith]], [[Mark Isaac]], and [[Vernon L. Smith|Vernon Smith]].<ref name=center>{{cite web|title=David Schmidtz|url=http://freedomcenter.arizona.edu/david-schmidtz|publisher=University of Arizona|accessdate=25 July 2014}}</ref>\u000a\u000a==Teaching career==\u000aIn 1988, Schmidtz took a job as an assistant professor at [[Yale University]]. He was promoted to associate professor in 1991. He left Yale after six years, going on to teach three semesters at [[Bowling Green State University]]. Schmidtz joined the faculty of the University of Arizona in 1995. He was promoted to professor of philosophy and joint professor of economics in 1998.<ref>{{cite web|title=History and Pattern|url=http://www.ohio.edu/ethics/archives/by-year/2003-past-events/|website=Institute for Applied and Professional Ethics|publisher=Ohio University|accessdate=25 July 2014}}</ref>\u000a\u000aSchmidtz taught first-year property as a visiting professor at [[Florida State University College of Law]] in 2007.  In the 2014-15 academic year, he was a national [[Phi Beta Kappa Society|Phi Beta Kappa]] Visiting Scholar and John Stuart Mill Professor at [[Hamburg University]]. Schmidtz is the founding director of the Freedom Center at the University of Arizona.<ref name=center/>\u000a\u000aAmong his former doctoral students are Walter Glannon, Lainie Friedman Ross, Linda Radzik, Steve Scalet, Rhonda Smith, Matt Zwolinski, Cara Nine, Jason Brennan, Matt Bedke, Chris Brown, Chris Freiman, Daniel Silvermint, Keith Hankins, and John Thrasher.\u000a\u000a==Writing==\u000a\u000a===Books===\u000aHe is author of ''Elements of Justice'',<ref>{{cite book | last = Schmidtz | first = David | title = Elements of justice | publisher = Cambridge University Press | location = Cambridge New York | year = 2006 | isbn = 9780521539364 }}</ref> ''Rational Choice and Moral Agency'',<ref>{{cite book | last = Schmidtz | first = David | title = Rational choice and moral agency | publisher = Princeton University Press | location = Princeton, N.J | year = 1996 | isbn = 9780691029184 }}</ref> co-author of ''Social Welfare and Individual Responsibility'' (a \u201cFor & Against\u201d book with [[Robert Goodin]])<ref>{{cite book | last = Schmidtz | first = David | title = Social welfare and individual responsibility | publisher = Cambridge University Press | location = Cambridge New York | year = 1998 | isbn = 9780521564618 }}</ref> and editor of a volume on [[Robert Nozick]] in the Cambridge University Press "Contemporary Philosophy in Focus" series.<ref>{{cite book | last = Schmidtz | first = David | title = Robert Nozick | publisher = Cambridge University Press | location = Cambridge, UK New York | year = 2002 | isbn = 9780521782265 }}</ref> He also co-edited ''Environmental Ethics: What Really Matters, What Really Works'' (Oxford) with [[Elizabeth Willott]]; a second edition of this book appeared in 2012.<ref>{{cite book | last1 = Schmidtz | first1 = David | last2 = Willott | first2 = Elizabeth | title = Environmental ethics: what really matters, what really works | publisher = Oxford University Press | location = New York | year = 2012 | isbn = 9780199793518 }}</ref> His first book, ''The Limits of Government: An Essay on the Public Goods Argument'',<ref>{{cite book | last = Schmidtz | first = David | title = The limits of government: an essay on the public goods argument | publisher = Westview Press | location = Boulder | year = 1991 | isbn = 9780813308708 }}</ref> combined his interests in moral philosophy and economic analysis. Schmidtz has also written on [[rational choice theory]] and [[environmental ethics]].\u000a\u000a===Journals===\u000aHe has published articles in many journals, including the ''Journal of Philosophy,'' ''Ethics,'' and ''Political Theory'' along with reviews in journals such as ''Philosophical Review,'' ''Canadian Journal of Philosophy,'' and ''Mind.'' Over seventy of his articles have been (or are in the process of being) reprinted, including Russian, Spanish, Portuguese, Mandarin, Turkish, Italian, Romanian, Polish, Czech, Slovak, Hebrew, and German translations. Thirteen of his essays (one previously unpublished, on Peter Singer's approach to moral theory) were published by Oxford Press as ''Person, Polis, Planet'' in 2008. ''A Brief History of Liberty'' (Wiley-Blackwell), with co-author [[Jason Brennan]] appeared in 2010. He is now working on ''Markets In Education'' (Oxford) with Harry Brighouse.\u000a\u000aSchmidtz is editor-in-chief of the Cambridge Press journal ''Social Philosophy and Policy''.\u000a\u000a== Selected bibliography ==\u000a\u000a=== Books ===\u000a* {{cite book | last = Schmidtz | first = David | title = The limits of government: an essay on the public goods argument | publisher = Westview Press | location = Boulder | year = 1991 | isbn = 9780813308708 }}\u000a* {{cite book | last = Schmidtz | first = David | title = Rational choice and moral agency | publisher = Princeton University Press | location = Princeton, N.J | year = 1996 | isbn = 9780691029184 }}\u000a* {{cite book | last = Schmidtz | first = David | title = Social welfare and individual responsibility | publisher = Cambridge University Press | location = Cambridge New York | year = 1998 | isbn = 9780521564618 }}\u000a* {{cite book | last = Schmidtz | first = David | title = Robert Nozick | publisher = Cambridge University Press | location = Cambridge, UK New York | year = 2002 | isbn = 9780521782265 }}\u000a* {{cite book | last = Schmidtz | first = David | title = Elements of justice | publisher = Cambridge University Press | location = Cambridge New York | year = 2006 | isbn = 9780521539364 }}\u000a* {{cite book | last = Schmidtz | first = David | title = Person, Polis, Planet | publisher = Oxford University Press | location = Oxford New York | year = 2008 | isbn = 9780521539364 }}\u000a* {{cite book | last1 = Schmidtz | first1 = David | last2 = Brennan | first2 = Jason | title = A brief history of liberty | publisher = Wiley-Blackwell | location = Chichester, U.K. Malden, MA | year = 2010 | isbn = 9781405170796 }}\u000a* {{cite book | last1 = Schmidtz | first1 = David | last2 = Willott | first2 = Elizabeth | title = Environmental ethics: what really matters, what really works | publisher = Oxford University Press | location = New York | year = 2012 | isbn = 9780199793518 }}\u000a* {{Citation | last1 = Schmidtz | first1 = David | last2 = Scalet | first2 = Steven P | author-link2 = Steven P. Scalet | contribution = Famine, poverty, and property rights | editor-last = Morris | editor-first = Christopher | title = Amartya Sen | pages = 170\u2013190 | publisher = Cambridge University Press | location = Cambridge New York | year = 2009 | isbn = 9780521618069 }}\u000a\u000a==See also==\u000a* [[Canadian philosophy]]\u000a* [[List of Canadian philosophers]]\u000a* [[American philosophy]]\u000a* [[List of American philosophers]]\u000a\u000a==References==\u000a{{Reflist}}\u000a\u000a==External links==\u000a* [http://www.u.arizona.edu/~schmidtz/ David Schmidtz's homepage]\u000a* {{cite web |last=Roberts |first=Russ |title=Schmidtz on Rawls, Nozick, and Justice |url=http://www.econtalk.org/archives/_featuring/david_schmidtz/ |work=[[EconTalk]] |publisher=[[Library of Economics and Liberty]] |authorlink=Russ Roberts |date=May 7, 2012}}\u000a* {{Goodreads author}}\u000a* {{worldcat id|lccn-n90-685349}}\u000a\u000a{{Authority control}}\u000a\u000a{{DEFAULTSORT:Schmidtz, David}}\u000a[[Category:1955 births]]\u000a[[Category:Living people]]\u000a[[Category:Canadian emigrants to the United States]]\u000a[[Category:University of Arizona alumni]]\u000a[[Category:Yale University faculty]]\u000a[[Category:Bowling Green State University faculty]]\u000a[[Category:Florida State University faculty]]\u000a[[Category:20th-century philosophers]]\u000a[[Category:21st-century philosophers]]\u000a[[Category:American philosophers]]\u000a[[Category:American political theorists]]\u000a[[Category:Libertarian theorists]]\u000a[[Category:University of Arizona faculty]]
p2
tp3
.