(VDick de Jongh
p1
V'''Dick Herman Jacobus de Jongh''' (born 19 October 1939, [[Enschede]])<ref>[http://albumacademicum.uva.nl/cgi/b/bib/bib-idx?type=simple;lang=en;c=ap;rgn1=entirerecord;q1=Jongh;x=11;y=16;cc=ap;view=reslist;sort=achternaam;fmt=long;page=reslist;size=1;start=17 Prof. dr. D.H.J. de Jongh, 1939 -] at the [[University of Amsterdam]] ''Album Academicum'' website</ref> is a [[Netherlands|Dutch]] [[logic]]ian and [[mathematics|mathematician]] and a retired professor at the [[University of Amsterdam]].\u000aHe received his [[Doctor of Philosophy|PhD]] degree in 1968 from the [[University of Wisconsin\u2013Madison]] under supervision of [[Stephen Cole Kleene|Stephen Kleene]] with a dissertation entitled ''Investigations on the Intuitionistic Propositional Calculus''.<ref>{{mathgenealogy|name=Dick H. J. de Jongh |id=9042}}.</ref> De Jongh is mostly known for his work on [[proof theory]], [[provability logic]] and [[intuitionistic logic]]. De Jongh is a member of the group collectively publishing under the [[pseudonym]] [[L. T. F. Gamut]].<ref>Preface to ''Logic, Language and Meaning'', by [[L. T. F. Gamut]], University of Chicago Press, 1991.</ref> In 2004, on the occasion of his retirement, the Institute for Logic, Language and Computation at the University of Amsterdam published a [[festschrift]] in his honor.<ref>{{citation|title= Vriendenboek ofwel Liber Amicorum ter gelegenheid van het afscheid van Dick de Jongh|year=2004|publisher=Institute for Logic, Language and Computation, University of Amsterdam|url=http://www.illc.uva.nl/D65/}}.</ref>\u000a\u000a==References==\u000a{{reflist}}\u000a*[http://www.iku.edu.tr/userfiles/file/ModalMantik/vitae05.pdf Curriculum vitae]\u000a\u000a==External links==\u000a*[http://www.illc.uva.nl/People/show_person.php?Person_id=Jongh+D.H.J.+de Web page] at the University of Amsterdam\u000a\u000a{{Authority control}}\u000a\u000a{{DEFAULTSORT:Jongh, Dick de}}\u000a[[Category:1939 births]]\u000a[[Category:Living people]]\u000a[[Category:20th-century Dutch mathematicians]]\u000a[[Category:Dutch logicians]]\u000a[[Category:Leiden University alumni]]\u000a[[Category:University of Amsterdam alumni]]\u000a[[Category:University of Wisconsin\u2013Madison alumni]]\u000a[[Category:University of Amsterdam faculty]]\u000a[[Category:Proof theorists]]\u000a[[Category:Dutch philosophers]]\u000a[[Category:People from Enschede]]\u000a\u000a{{Netherlands-scientist-stub}}\u000a{{Europe-mathematician-stub}}
p2
tp3
.