(VDirk van Dalen
p1
V[[File:Dirk van Dalen.jpg|thumb|220px|Dirk van Dalen]]\u000a'''Dirk van Dalen''' (born 20 December 1932, [[Amsterdam]]) is a [[Dutch people|Dutch]] [[mathematician]] and [[historian]] of science.\u000a\u000aVan Dalen studied mathematics and physics and astronomy at the [[University of Amsterdam]]. Inspired by the work of [[LEJ Brouwer]] and [[Arend Heyting]], he received his Ph.D. in 1963 from the University of Amsterdam for the thesis ''Extension problems in intuitionistic plane Projective geometry.'' From 1964 to 1966 Van Dalen taught logic and mathematics at [[Massachusetts Institute of Technology|MIT]], and later [[University of Oxford|Oxford]]. From 1967 he was professor at the [[University of Utrecht]]. In 2003 Dirk van Dalen was awarded the Academy Medal 2003 of the Royal Dutch Academy of Sciences for bringing the works of Brouwer to international attention.\u000a\u000a== Works ==\u000a* Foundations of Set Theory, in samenwerking met Yehoshua Bar-Hillel en Azriel Levy, uitgeverij North Holland Amsterdam, 1958.\u000a* Extension problems in intuitionistic plane projective geometry, 1963.\u000a* ''Structure and Logic'', Springer Universitext, 1980. ISBN 3-540-20879-8\u000a* Brouwer's Cambridge Lectures on Intuitionism, Dirk van Dalen (redactie), Cambridge University Press, Cambridge, 1981.\u000a* {{cite book|isbn=0-444-70358-6|title=Constructivism in Mathematics, Vol. 2|last1=Troelstra|first1=Anne|authorlink1=Anne Sjerp Troelstra|last2=van Dalen|first2=Dirk|series=Studies in Logic and the Foundations of Mathematics|year=1988}}\u000a* Zermelo and the Skolem Paradox, Dirk van Dalen en Heinz-Dieter Ebbinghaus in: The Bulletin of Symbolic Logic, Volume 6, Nr 2, Juni 2000.\u000a* Intuitionistic Logic, in: The Blackwell Guide to Philosophical Logic, Lou Goble (redactie), Blackwell New York, 2001.\u000a* L.E.J. Brouwer - Topologist, Institionalist, Philosopher, Dirk van Dalen, Springer-Verlag, London, 2013.\u000a\u000a== References ==\u000a* The article was originally created as a translation (Google) of the corresponding article in [[Dutch Wikipedia]].\u000a\u000a== Further reading ==\u000a* ''Dirk van Dalen Festschrift'', [[Henk Barendregt]] en anderen (redactie),   University of Utrecht, Department of Philosophy, 1993\u000a* ''Special issue: a tribute to Dirk van Dalen'', [[Yuri Gurevich]] (redactie), uitgeverij North-Holland, Amsterdam, 1995.\u000a\u000a==External links==\u000a* [http://poortman.kb.nl/long2.php?TABEL=T_NAAM&ID=4893 Koninklijke bibliotheek] over Dirk van Dalen\u000a* [http://www.phil.uu.nl/~dvdalen/ Homepage] aan de Universiteit van Utrecht\u000a* [http://www.knaw.nl/cfdata/nieuws/nieuws_detail.cfm?nieuws__id=145 Persbericht KNAW 2003]\u000a* {{MathGenealogy|id=45022}}\u000a\u000a{{Authority control}}\u000a\u000a{{DEFAULTSORT:Dalen, Dirk van}}\u000a[[Category:1932 births]]\u000a[[Category:Living people]]\u000a[[Category:Dutch mathematicians]]\u000a[[Category:Dutch historians]]\u000a[[Category:Dutch logicians]]\u000a[[Category:Historians of mathematics]]\u000a[[Category:Historians of science]]\u000a[[Category:Intuitionism]]\u000a[[Category:Massachusetts Institute of Technology faculty]]\u000a[[Category:Scientists from Amsterdam]]\u000a[[Category:University of Amsterdam alumni]]\u000a[[Category:Utrecht University faculty]]\u000a\u000a{{netherlands-scientist-stub}}\u000a{{europe-mathematician-stub}}
p2
tp3
.