(VEmma Rush
p1
V{{EngvarB|date=August 2014}}\u000a{{Use dmy dates|date=August 2014}}\u000a\u000a{{ Infobox scientist\u000a| name              = Emma Rush\u000a| image             = \u000a| image_size        =\u000a| alt               = \u000a| caption           =\u000a| birth_date        = \u000a| birth_place       =\u000a| death_date        =\u000a| death_place       = \u000a| residence         = \u000a| citizenship       = \u000a| nationality       = Australian\u000a| ethnicity         = \u000a| fields            = \u000a| workplaces        = [[Charles Sturt University Faculty of Arts]], School of Humanities and Social Sciences\u000a| alma_mater        = Department of Philosophy/Centre for Applied Philosophy and Public Ethics, [[University of Melbourne]]\u000a| thesis_title      = Consume with care: ethics, economics and industrialised world over-consumption\u000a| thesis_url        = https://www.worldcat.org/title/consume-with-care-ethics-economics-and-over-consumption-in-the-industrialized-world/oclc/224910719\u000a| thesis_year       = 2004\u000a| doctoral_advisor  = \u000a| academic_advisors = \u000a| doctoral_students = \u000a| notable_students  = \u000a| known_for         =  Reports for [[The Australia Institute]]\u000a| author_abbrev_bot = \u000a| author_abbrev_zoo = \u000a| influences        = \u000a| influenced        = \u000a| awards            = \u000a| signature         = <!--(filename only)-->\u000a| signature_alt     = \u000a| footnotes         = \u000a| website           = {{official|http://www.csu.edu.au/faculty/arts/humss/staff/profiles/philosophy/emma-rush}}\u000a}}\u000a\u000a'''Emma Rush''', PhD is a lecturer in philosophy and ethics at [[Charles Sturt University Faculty of Arts]], School of Humanities and Social Sciences, notable for her work on sexualisation of children.<ref name=Charles_Sturt>{{cite web|title=Dr Emma Rush|url=http://www.csu.edu.au/faculty/arts/humss/staff/profiles/philosophy/emma-rush|publisher=Charles Sturt University, School of Humanities and Social Sciences|accessdate=15 July 2014}}</ref>\u000a\u000aIn 2006, Rush worked on a series of reports for [[The Australia Institute]]. Two of the reports which she co-authored<ref name=Corporate>{{cite book|last1=Rush|first1=Emma|last2=La Nauze|first2=Andrea|title=Corporate paedophilia: the sexualisation of children in Australia (discussion paper number 90)|date=2006|publisher=The Australian Institute|location=Canberra|oclc=156752334 |ISSN=1322-5421 }} [http://www.tai.org.au/documents/downloads/DP90.pdf Pdf version.]</ref><ref name=Letting>{{cite book|last1=Rush|first1=Emma|last2=La Nauze|first2=Andrea|title=Letting children be children: stopping the sexualisation of children in Australia (discussion paper number 93)|date=2006|publisher=The Australian Institute|location=Canberra|oclc=225513585 |ISSN=1322-5421 }} [http://www.parliament.qld.gov.au/Documents/TableOffice/TabledPapers/2014/5414T4837.pdf Pdf version.]</ref> led to a senate inquiry into the sexualisation of children.<ref name=CCYP>{{cite book|title=Senate inquiry into the sexualisation of children in the contemporary media environment|date=2008|publisher=The Commission for Children and Young People (CCYP), State Government Victoria|location=[[Victoria, Australia]]|url=http://www.ccyp.vic.gov.au/childsafetycommissioner/downloads/submission_senateinquiry_media_sexn_of_kids.pdf}}</ref>\u000a\u000aRush has also been consulted by the media, including Australia's [[ABC News (Australia)|ABC News]] and ''[[The Sydney Morning Herald]]''.\u000a\u000a== Research ==\u000aRush's main areas of research are: [[environmental ethics]] and [[Ethics|ethics in public life]], particularly, [[Sexualization|sexualisation of children]] and the [[Day care|corporatisation of child care]].<ref name=Charles_Sturt />\u000a\u000a== Media ==\u000aRush has acted as a media consultant over issues relating to sexualisation, advertising and pornography debates by [[ABC Radio and Regional Content|ABC Radio, Australia]],<ref>{{cite AV media|people=Scott Stephens (presenter), Dr. Emma Rush (guest) |title=RN Drive|trans_title=[http://www.abc.net.au/radionational/programs/drive/can-an-anti-abortion-activist-be-called-a-feminist3f/3816694 Can an anti-abortion activist be called a feminist?] |medium=Radio show|publisher=[[ABC Radio and Regional Content|ABC]]|time=6.45pm |location=Australia|date=7 February 2012}}</ref> [[ABC News (Australia)|ABC News, Australia]],<ref>{{cite news|last1=Rush|first1=Emma|title=Media must do better on porn debate|url=http://www.abc.net.au/religion/articles/2012/02/01/3420737.htm |accessdate=15 July 2014|publisher=ABC News|date=1 February 2012}}</ref> ''[[The Sydney Morning Herald]]'',<ref name=Tween>{{cite news|last1=Rush|first1=Emma|last2=Norma|first2=Caroline|title=Sexed up tween advertising shows fashion needs to grow up|url=http://www.smh.com.au/opinion/society-and-culture/sexed-up-tween-advertising-shows-fashion-needs-to-grow-up-20120215-1t788.html |accessdate=12 July 2014|publisher=Sydney Morning Herald|date=16 February 2012}}</ref> ''[[The Conversation (website)|The Conversation]]'',<ref>{{cite news|last1=Rush|first1=Emma|title=Girls on film: could new regulations stop the sexualisation of children?|url=http://theconversation.com/girls-on-film-could-new-regulations-stop-the-sexualisation-of-children-6762|accessdate=15 July 2014|publisher=The Conversation|date=23 May 2012}}</ref> and [[Melinda Tankard Reist]]'s website.<ref>{{cite web|last1=Rush|first1=Emma|title=Teens have hearts, not just bodies|url=http://melindatankardreist.com/2012/02/teens-have-hearts-not-just-bodies/|publisher=Melinda Tankard Reist|accessdate=15 July 2014|date=8 February 2012}}</ref>\u000a\u000a== Selected bibliography ==\u000a=== Ph.D thesis ===\u000a* {{cite thesis |degree= Ph.D. | last=Rush | first=Emma |date= September 2006 |title= Consume with care: ethics, economics and industrialised world over-consumption  | publisher= Department of Philosophy/Centre for Applied Philosophy and Public Ethics, [[University of Melbourne]] | location = Melbourne | url = http://books.google.co.uk/books/about/Consume_with_Care.html?id=DNjINAAACAAJ&redir_esc=y | oclc = 224910719 }}\u000a\u000a=== 2006 papers for The Australia Institute ===\u000a<small>'''2006 discussion papers for the Australia Institute'''</small> \u000a* {{cite book | last=Rush | first=Emma | title= Child care quality in Australia (discussion paper number 84)| date= April 2006 | publisher= The Australia Institute | location = Canberra | oclc= 156571048 | ISSN= 1322-5421 }} [http://www.tai.org.au/documents/downloads/DP84.pdf Pdf version.]\u000a* {{cite book | last1=Rush | first1=Emma | last2=Downie | first2=Christian | title= ABC learning centres: a case-study of Australia's largest child care corporation (discussion paper number 87) | date= June 2006 | publisher= The Australia Institute | location = Canberra | oclc= 156757390 | ISSN= 1322-5421 }} [http://www.tai.org.au/documents/downloads/DP87.pdf Pdf version.]\u000a* {{cite book | last1=Rush | first1=Emma | last2=La Nauze | first2=Andrea | title=Corporate paedophilia: the sexualisation of children in Australia (discussion paper number 90)| date=October 2006 | publisher= The Australia Institute | location = Canberra | oclc= 156752334 | ISSN= 1322-5421 }} [http://www.tai.org.au/documents/downloads/DP90.pdf Pdf version.]\u000a* {{cite book | last1=Rush | first1=Emma | last2=La Nauze | first2=Andrea | title=Letting children be children: stopping the sexualisation of children in Australia (discussion paper number 93)| date=December 2006 | publisher= The Australia Institute | location = Canberra | oclc= 225513585 | ISSN= 1322-5421 }} [http://www.parliament.qld.gov.au/Documents/TableOffice/TabledPapers/2014/5414T4837.pdf Pdf version.]\u000a\u000a<small>'''2006 web papers for the Australia Institute'''</small> \u000a* {{cite book | last=Rush | first=Emma | title= Skip dipping in Australia (web paper number 85)| date= February 2006 | publisher= The Australia Institute | location = Canberra | oclc= 224947742 }} [http://www.tai.org.au/documents/downloads/WP85.pdf Pdf version.]\u000a* {{cite book | last=Rush | first=Emma | title= Skip dipping in Australia (web paper number 85)| date= April 2006 | publisher= The Australia Institute | location = Canberra | oclc= 224947742 }} [http://www.tai.org.au/documents/downloads/WP85.pdf Pdf version.]\u000a* {{cite book | last1=Rush | first1=Emma | last2= Hamilton | first2= Clive | title= The attitudes of Australians to happiness and social well-being (web paper number 90)| date= September 2006 | publisher= The Australia Institute | location = Canberra | oclc= 225280784 }} [http://www.tai.org.au/documents/downloads/WP90.pdf Pdf version.]\u000a\u000a=== Chapters in books ===\u000a* {{Citation | last = Rush | first = Emma | contribution = Plastic fantastic: the sexualisation of children | editor-last = Fleetwood | editor-first = Julian | title = The sex mook: what is our sex? | pages = 108\u2013110 | publisher = Vignette Press | location = Melbourne, Australia | year = 2007 | isbn = 9781876110000 }}\u000a* {{Citation | last = Rush | first = Emma | contribution = Employees' views on quality | editor-last1 = Hill | editor-first1 = Elizabeth | editor-last2 = Pocock | editor-first2 = Barbara | editor-last3 = Elliott | editor-first3 = Alison | title = Kids count: better early childhood education and care in Australia | pages = 154\u2013178 | publisher = Sydney University Press | location = Sydney, Australia | year = 2007 | isbn = 9781920898700 }}\u000a* {{Citation | last = Rush | first = Emma | contribution = What are the risks of premature sexualisation for children? | editor-last1 = Tankard Reist  | editor-first1 = Melinda | editor-link1 = Melinda Tankard Reist  | title = Getting real: challenging the sexualisation of girls | pages = 41\u201354 | publisher = Spinifex Press | location = Melbourne, Australia | year = 2009 | isbn = 9781876756758 }}\u000a* {{Citation | last = Rush | first = Emma | contribution = Children, media and ethics | editor-last1 = Warburton | editor-first1 = Wayne | editor-last2 = Braunstein  | editor-first2 = Danya | title = Growing up fast and furious | pages = 159\u2013174 | publisher = The Federation Press | location = Sydney, Australia | year = 2012 | isbn = 9781862878235 }}\u000a* {{Citation | last = Rush | first = Emma | contribution = Ethics of food security | editor-last1 = Farmar-Bowers | editor-first1 = Quentin | editor-last2 = Higgins | editor-first2 = Vaughan | editor-last3 = Millar | editor-first3 = Joanne | title = Food security in Australia: challenges and prospects for the future | pages = 35\u201348 | publisher = Springer | location = New York | year = 2013 | isbn = 9781461444831 }}\u000a\u000a=== Journal articles ===\u000a* {{Cite journal | last1 = Rush | first1 = Emma | last2 = Gleeson | first2 = Brendan | last3 = Low | first3 = Nicholas | title = A multivalent conception of path dependence: The case of transport planning in metropolitan Melbourne, Australia | journal = Environmental Sciences | volume = 2 | issue = 4 | pages = 391\u2013408 | publisher = Taylor and Francis | doi = 10.1080/15693430500405146 | date = 2005 | url = http://dx.doi.org/10.1080/15693430500405146 | ref = harv | postscript = .}}\u000a* {{Cite journal | last1 = Rush | first1 = Emma | title = Response to Taylor: the full picture of the sexualisation debate | journal = Australasian Journal of Early Childhood | volume = 36 | issue = 4 | pages = 111\u2013119 | publisher = Early Childhood Australia | date = December 2011 | url = http://www.earlychildhoodaustralia.org.au/our-publications/australasian-journal-early-childhood/ajec-archive/ajec-2011/ajec-vol-36-4-december-2011/ | ref = harv | postscript = .}} {{ISSN|1836-9391}}\u000a* {{Cite journal | last1 = Rush | first1 = Emma | last2 = Mungai | first2 = Ndungi wa | last3 = Wairire | first3 = Gidraph G. | title = The challenges of maintaining social work ethics in Kenya | journal = Ethics and Social Welfare, special issue: Ethical Challenges & Human Rights in Africa | volume = 8 | issue = 2 | pages = 170\u2013186 | publisher = Taylor and Francis | doi = 10.1080/17496535.2014.895401 | date = 2014 | url = http://dx.doi.org/10.1080/17496535.2014.895401 | ref = harv | postscript = .}}\u000a\u000a==References==\u000a{{Reflist|30em}}\u000a\u000a==External links==\u000a* [http://www.csu.edu.au/faculty/arts/humss/staff/profiles/philosophy/emma-rush Profile page: Dr Emma Rush] School of Humanities and Social Sciences, Charles Sturt University\u000a* [http://www.worldcat.org/identities/np-rush,%20emma/ Emma Rush] OCLC WorldCat Identities\u000a\u000a{{subject bar|portal1=Ethics |portal2=Gender Studies |portal3=Environment |portal4=Pornography |portal5=Biography |portal6=Australia}}\u000a{{Philosophy topics}}\u000a{{Ethics}}\u000a{{Environmental humanities}}\u000a\u000a{{DEFAULTSORT:Rush, Emma}}\u000a[[Category:Anti-pornography activists]]\u000a[[Category:Anti-prostitution activists]]\u000a[[Category:Child care]]\u000a[[Category:Date of birth missing (living people)]]\u000a[[Category:Environmental ethics]]\u000a[[Category:Ethics]]\u000a[[Category:Living people]]\u000a[[Category:Australian philosophers]]\u000a[[Category:Philosophy of life]]\u000a[[Category:Place of birth missing (living people)]]\u000a[[Category:Relational ethics]]\u000a[[Category:Social philosophy]]\u000a[[Category:Charles Sturt University faculty]]
p2
tp3
.