(VFranco Burgersdijk
p1
V[[File:Franco Petri Burgersdijk.jpg|thumb|Franco Burgersdijk.]]\u000a[[File:Burgersdijk.jpg|thumb|''Idea philosophiae naturalis'' <br>(Leiden, Elzevier, 1635)]]\u000a'''Franco Petri Burgersdijk''' or '''Franciscus Burgersdicius''', born '''Franck Pieterszoon Burgersdijk''' (3 May 1590 &ndash; 19 February 1635), was a [[Netherlands|Dutch]] [[logician]].\u000a\u000a==Life==\u000aBurgersdijk was born in [[De Lier]].  He was a student of Jacchaeus ([[Gilbert Jack]]).<ref>http://genealogy.math.ndsu.nodak.edu/id.php?id=114992</ref> Burgersdijk finished his studies at the [[University of Leiden]] in 1610. He left to further study [[theology]] at the [[Saumur|University of Saumur]], where he became professor of [[philosophy]] in 1614. After five years he returned to [[Leiden]], where he accepted the chair of [[logic]] and moral philosophy, and afterwards that of [[natural philosophy]].  He died in Leiden.\u000a\u000a==Works==\u000a\u000a* {{Cite book\u000a| publisher = Bonaventura Elzevier, Abraham Elzevier\u000a| language = la\u000a| title = Institutionum logicarum libri duo\u000a| date = 1626\u000a}}\u000a* {{Cite book\u000a| publisher = Bonaventura Elzevier, Abraham Elzevier\u000a| language = la\u000a| title = Idea philosophiae moralis\u000a| date = 1644\u000a| url = http://gutenberg.beic.it/webclient/DeliveryManager?pid=1234619\u000a}}\u000a* {{Cite book\u000a| publisher = Bonaventura Elzevier, Abraham Elzevier\u000a| language = la\u000a| title =Institutionum metaphysicarum libri duo\u000a| date = 1647\u000a}}\u000a* {{Cite book\u000a| publisher = Bonaventura Elzevier, Abraham Elzevier\u000a| language = la\u000a| title = Idea philosophiae naturalis, sive Methodus definitionum et controversiarum phisicarum\u000a| date = 1652\u000a| url = http://gutenberg.beic.it/webclient/DeliveryManager?pid=77503\u000a}}\u000a\u000a==Notes==\u000a{{Reflist}}\u000a\u000a==References==\u000a* Egbert P. Bos, ''Franco Burgersdijk (1590-1635) Neo-aristotelian in Leiden'', Editions Rodopi 1993, ISBN 90-5183-374-1.\u000a\u000a;Attribution\u000a*{{EB1911|wstitle=Burgersdyk, Francis}}\u000a\u000a==External links==\u000a*{{prdl|177}}\u000a\u000a{{Authority control}}\u000a\u000a{{DEFAULTSORT:Burgersdijk, Franco}}\u000a[[Category:1590 births]]\u000a[[Category:1635 deaths]]\u000a[[Category:Dutch logicians]]\u000a[[Category:17th-century Dutch philosophers]]\u000a[[Category:Leiden University faculty]]\u000a[[Category:Leiden University alumni]]\u000a[[Category:People from De Lier]]\u000a\u000a\u000a{{Netherlands-philosopher-stub}}
p2
tp3
.