(VGabriele Taylor
p1
V{{notability|date=November 2012}}\u000a'''Gabriele Taylor''' is a philosopher and university teacher. She was Fellow and Tutor in Philosophy at [[St Anne's College, Oxford]] until her retirement in 1996. Since then she has continued work as a Senior Research Fellow of the College, pursuing her own particular interests in [[ethics]].\u000a\u000a== Early life and education ==\u000aTaylor was born on 11 October 1927 and grew up in Berlin. Her early education was disturbed by the war and at the conclusion of hostilities she and her family found themselves in the British sector of the occupied city. She worked for a while with the [[Red Cross]] but ultimately was able to travel to England in 1947 to join a relative already in the country. She then worked part-time whilst also studying and then was successful in gaining a place at St Anne\u2019s in 1952 to read [[Philosophy, Politics and Economics]] (PPE). She went on to study for the BPhil in Philosophy, which she completed in 1957.\u000a\u000a== Academic career ==\u000a\u000aOn completing her BPhil, Taylor started her teaching career as a lecturer in Philosophy at St Anne\u2019s, working alongside [[Iris Murdoch]], who had been a Fellow of the College since 1948.<ref>{{cite web|url=http://www.st-annes.ox.ac.uk/about/people/supernumerary-emeritus-honorary-and-senior-research-fellows.html |accessdate=August 12, 2011 |deadurl=yes |archiveurl=https://web.archive.org/web/20110710101401/http://www.st-annes.ox.ac.uk/about/people/supernumerary-emeritus-honorary-and-senior-research-fellows.html |archivedate=July 10, 2011 }}</ref> Following a spell in Australia teaching at [[Canberra University College]], on her return to England she rejoined the College as a lecturer in 1962 and became a Fellow of the College in 1964. During her career as Fellow and Tutor she taught undergraduates reading most of the Honour Schools involving philosophy as well as supervising graduate students. In the [[Faculty of Philosophy, University of Oxford]], Taylor also examined and lectured  on moral philosophy, [[Immanuel Kant|Kant]] and the [[British Empiricists]] and gave revision classes on the history of philosophy.\u000a\u000a== Academic interests ==\u000aIn her role as tutor for the PPE school, Taylor taught the general and moral philosophy courses and special papers for PPE final examinations, and also taught elementary [[formal logic]] to first year undergraduates. \u000a\u000aHer own research has focused on [[moral psychology]], with a particular interest in the \u2018ordinary\u2019 vices traditionally seen as death to the soul.<ref>{{cite web|url=http://philpapers.org/s/Gabriele%20Taylor |title=Works by Gabriele Taylor |publisher=PhilPapers |date= |accessdate=2013-10-26}}</ref> Her best-known works are probably ''Pride, Shame and Guilt'' ([[Oxford University Press]] 1985)<ref>{{cite web|url=http://ukcatalogue.oup.com/product/9780198246206.do?keyword=gabriele+taylor&sortby=bestMatches |title=Pride, Shame, and Guilt: Gabriele Taylor - Oxford University Press |publisher=Ukcatalogue.oup.com |date=1985-10-24 |accessdate=2013-10-26}}</ref> and ''Deadly Vices'' ([[Clarendon Press]] 2006),<ref>{{cite web|url=http://ukcatalogue.oup.com/product/9780198235804.do?keyword=deadly+vices&sortby=bestMatches |title=Deadly Vices: Hardback: Gabriele Taylor - Oxford University Press |publisher=Ukcatalogue.oup.com |date=2006-06-08 |accessdate=2013-10-26}}</ref> which examine the beliefs involved in the experience of these emotions. [[Tom Hurka]] described ''Deadly Vices'' as 'deeply illuminating ... she takes the neo-Aristotelian view of virtue further than any other writer I know'.<ref>{{cite web|author=ENR // AgencyND // University of Notre Dame |url=http://ndpr.nd.edu/news/25260/?id=9226 |title=Deadly Vices // Reviews // Notre Dame Philosophical Reviews // University of Notre Dame |publisher=Ndpr.nd.edu |date=2007-04-05 |accessdate=2013-10-26}}</ref>\u000a\u000a== References ==\u000a{{Reflist}}\u000a\u000a{{DEFAULTSORT:Taylor, Gabriele}}\u000a[[Category:Articles created via the Article Wizard]]\u000a[[Category:British ethicists]]\u000a[[Category:Fellows of St Anne's College, Oxford]]\u000a[[Category:Living people]]\u000a[[Category:1927 births]]\u000a[[Category:Alumni of St Anne's College, Oxford]]\u000a[[Category:20th-century philosophers]]\u000a[[Category:English philosophers]]\u000a[[Category:English women philosophers]]\u000a[[Category:Moral psychology]]\u000a[[Category:Moral philosophers]]
p2
tp3
.