(VGerald Sacks
p1
V'''Gerald Enoch Sacks''' (born 1933, [[Brooklyn]]) is a [[logician]] who holds a joint appointment at [[Harvard University]] as a Professor of [[Mathematical Logic]] and the [[Massachusetts Institute of Technology]] as a Professor Emeritus.<ref>[http://www.math.harvard.edu/~sacks/Short%20CV.pdf Short CV], retrieved 2015-06-26.</ref><ref>{{citation|url=https://math.mit.edu/news/integral/integral_2006.pdf|journal=Integral: News from the Mathematics Department at MIT|page=6|title=Professor Gerald Sacks Retires from MIT|date=Autumn 2006|volume=1}}.</ref> His most important contributions have been in [[recursion theory]]. Named after him is [[Sacks forcing]], a [[forcing (mathematics)|forcing]] notion based on [[perfect set]]s<ref>{{citation|title=Combinatorial Set Theory: With a Gentle Introduction to Forcing|series=Springer Monographs in Mathematics|first=Lorenz J.|last=Halbeisen|publisher=Springer|year=2011|isbn=9781447121732|pages=380\u2013381|url=https://books.google.com/books?id=NZVb54INnywC&pg=PA380}}.</ref> and the Sacks Density Theorem, which asserts that the partial order of the recursively enumerable Turing degrees is dense.<ref>{{citation|title=Recursively Enumerable Sets and Degrees: A Study of Computable Functions and Computably Generated Sets|series=Perspectives in Mathematical Logic|first=Robert I.|last=Soare|publisher=Springer|year=1987|isbn=9783540152996|page=245|url=https://books.google.com/books?id=9I7Pl00LU5gC&pg=PA245}}.</ref>\u000a\u000aSacks earned his [[Doctor of Philosophy|Ph.D.]] in 1961 from [[Cornell University]] under the direction of [[J. Barkley Rosser]], with a dissertation entitled ''On Suborderings of Degrees of Recursive Insolvability''. Among his notable students are [[Lenore Blum]], [[Harvey Friedman]], [[Sy Friedman]], [[Leo Harrington]], [[Richard Shore]], [[Steve Simpson (mathematician)|Steve Simpson]] and [[Theodore Slaman]].<ref>{{MathGenealogy |id=22616}}</ref>\u000a\u000a==Selected publications==\u000a* [https://books.google.com/books/about/Degrees_of_Unsolvability.html?id=ZXEJGn_T0A4C Degrees of unsolvability], Princeton University Press 1963, 1966<ref>Review of ''Degrees of unsolvability'' by [[Kenneth Appel]], {{MR|0186554}}</ref>\u000a* Saturated Model Theory, Benjamin 1972; [https://books.google.com/books/about/Saturated_Model_Theory_2nd_Edition.html?id=xLFI9fOozVoC 2nd edition], World Scientific 2010<ref>Review of ''Saturated model theory'' by P. Stepanek, {{MR|0398817}}</ref>\u000a* Higher Recursion theory, Springer 1990<ref>Review of ''Higher recursion theory'' by Dag Normann, {{MR|1080970}}</ref>\u000a* Selected Logic Papers, World Scientific 1999<ref>Review of ''Selected logic papers'' by Dag Normann, {{MR|1783306}}</ref>\u000a* Mathematical Logic in the 20th Century, World Scientific 2003\u000a\u000a==References==\u000a{{reflist}}\u000a\u000a{{Authority control}}\u000a\u000a{{DEFAULTSORT:Sacks, Gerald}}\u000a[[Category:Living people]]\u000a[[Category:Logicians]]\u000a[[Category:American logicians]]\u000a[[Category:Cornell University alumni]]\u000a[[Category:20th-century mathematicians]]\u000a[[Category:21st-century mathematicians]]\u000a[[Category:Massachusetts Institute of Technology faculty]]\u000a[[Category:Harvard University alumni]]\u000a[[Category:Guggenheim Fellows]]\u000a[[Category:1933 births]]\u000a[[Category:American philosophers]]\u000a\u000a\u000a{{US-mathematician-stub}}
p2
tp3
.