(VGhazali
p1
V{{for|the administrative subdivision of Iran|Ghazali Rural District}}\u000a'''Ghazali''' ({{lang-ar|\u063a\u0632\u0627\u0644\u064a}}) is an Arabic surname, it may refer to:\u000a\u000a* [[Abu Hamed Mohammad ibn Mohammad Ghazali]] (c. 1058\u20131111), Persian Islamic scholar and reviver\u000a* [[Ahmad Ghazali]] (c. 1061\u20131123 or 1126), Persian mystic\u000a* [[Kacem El Ghazzali]], Moroccan activist\u000a* [[Mohammed Ghazali]], Pakistani cricketer\u000a* [[Mohammed al-Ghazali]] (1917\u20131996), Islamic cleric\u000a* [[Nazem Al-Ghazali]] (1921-1963), Iraqi singer\u000a* [[Rustum Ghazali]], Syrian politician\u000a* [[Salma Ghazali]], Algerian singer\u000a* [[Youcef Ghazali]], Algerian footballer\u000a* [[Zainab al Ghazali]] (1917-2005), Egyptian activist\u000a\u000a{{surname}}\u000a\u000a[[Category:Arabic-language surnames]]
p2
tp3
.