(VGlenn McGee
p1
V{{Infobox person\u000a| name = Glenn McGee\u000a| image = Glenn McGee Lecture.jpg\u000a| image_size =\u000a| caption = Glenn McGee\u000a| birth_name =\u000a| birth_date = 1967\u000a| birth_place = [[Fort Worth]], [[Texas]]\u000a|  death_date    = <!-- {{Death date and age|YYYY|MM|DD|YYYY|MM|DD}} (death date then birth date) -->\u000a| death_place   = \u000a| residence = [[New Haven, Connecticut]]\u000a| nationality = [[United States of America|U.S.A.]]\u000a| known_for =\u000a| alma_mater = [[Baylor University]], [[Vanderbilt University]]\u000a| height =\u000a| spouse = Summer J. McGee\u000a| website = http://www.newhaven.edu/Faculty-Staff-Profiles/glenn-mcgee/\u000a}}\u000a'''Glenn E. McGee''' is a [[professor]] of [[management]] at the [[University of New Haven]], who focuses on [[health policy]].<ref>{{citation|title=University of New Haven : McGee, Glenn|url=http://www.newhaven.edu/Faculty-Staff-Profiles/787295/|accessdate=2014-08-11}}</ref> He has been noted for his work on [[reproductive technology]] and [[genetics]] and for advancing a theory of pragmatic bioethics, as well as the role of ethicists in society and in local and state settings in particular.<ref>{{citation|first=Glenn|last=McGee|title=Parenting in an Era of Genetics|url=http://www.questia.com/googleScholar.qst;jsessionid=Ly0LvgGZyYvzhD0LzchjrlhlCPQzq1lfYncLvvbJs1CtzRpDycxp!-1667364753?docId=5002234765|journal=Hastings Center Report|volume=27|year=1997|accessdate=2008-07-07}}</ref><ref name="born">{{citation|first=Roxanne|last=Patel|title=The Born Identity: Penn's Glenn McGee, one of the best-known bioethicists in the world, tries to make sense of the most controversial issues of our day. But when he discovered the truth about his own genes, he faced the hardest question of all.|url=http://www.phillymag.com/articles/the_born_identity/|journal=Philadelphia Magazine|date=July 2003|accessdate=2008-07-07}}</ref><ref>{{citation|first=Lotozo |last=Eils|title=Penn bioethicist sees a wild frontier|url=http://nl.newsbank.com/nl-search/we/Archives?p_product=PI&s_site=philly&p_multi=PI&p_theme=realcities&p_action=search&p_maxdocs=200&p_topdoc=1&p_text_direct-0=0FE57C3C6608D932&p_field_direct-0=document_id&p_perpage=10&p_sort=YMD_date:D&s_trackval=GooglePM|journal=Philadelphia Inquirer|date=October 21, 2003|accessdate=2008-07-07}}</ref><ref>{{citation|first=Glenn |last=McGee|title=Ethical issues in egg and embryo donation|url=https://books.google.com/books?id=L4o1InVP9noC&pg=PA229&dq=McGee+perfect+baby+JAMA|journal=Sauer, ed., Principles of oocyte and embryo donation|year=1998|accessdate=2008-07-07|publisher=Springer|isbn=978-0-387-94960-4}}</ref>\u000a\u000a==Life and career==\u000aMcGee was raised by adoptive parents on the faculty of [[Baylor University]] in [[Waco, Texas]]. He earned a master's degree and Ph.D. in [[philosophy]] from [[Vanderbilt University]] and completed a post-doctoral fellowship in the [[National Human Genome Research Institute|Human Genome Project]].<ref name="born"/>\u000a\u000aFrom 1995 to 2005, McGee was an assistant professor and associate director for education at the [[University of Pennsylvania]] Center for Bioethics, where he held joint appointments in philosophy, history and sociology of science, cellular and molecular engineering, and was a Fellow of the [[Leonard Davis Institute of Health Economics]]. In 1999, he founded and became the first [[editor-in-chief]] of ''[[The American Journal of Bioethics]]''. In 2005, he moved to [[Union University]] in [[Albany, New York]], as the John Balint, M.D. Professor of Medical Ethics and became director of the Alden March Bioethics Institute at [[Albany Medical College]] which had been founded in 1993 as the Center for Medical Ethics Education and Research by Balint. Three years later, after a legal case arising from the University's attempts to demote him as director and remove his endowed chair, he left the university.<ref>{{citation|first=Cathleen|last=Crowley|title=Bioethics expert in dispute with Albany Med.: Glenn McGee files complaint in court saying college is not honoring severance package|url=http://www.timesunion.com/AspStories/story.asp?storyID=697584|journal=Albany Times Union|date=June 20, 2008|accessdate=2008-06-24}}</ref> In 2009 he was appointed to the John B. Francis chair in bioethics at the Center for Practical Bioethics in Kansas City, succeeding [[John D. Lantos]], inaugural holder of the chair.<ref>{{citation|title=New home for McGee|url=http://www.timesunion.com/AspStories/story.asp?storyID=877474&category=BUSINESS|date=December 13, 2009|accessdate=2010-01-02|publisher=[[Albany Times-Union]]}}</ref> He is presently a professor of management on the faculty of the Department of [[Management]] in the [[University of New Haven]] [[business school]] in 2014, where he teaches  [[public health]] and [[health law]].<ref>{{citation|title=University of New Haven : McGee, Glenn : Academic Credentials Subtab|url=http://www.newhaven.edu/Faculty-Staff-Profiles/787295/|accessdate=2014-08-11}}</ref>\u000a\u000a== Publications ==\u000aMcGee has authored many scholarly articles, essays, reviews, three books, and edited a number of books both personally and as senior editor of [The MIT Press] Basic Bioethics book series, which he founded with [[Arthur Caplan]].<ref>{{cite web|url=http://mitpress.mit.edu/catalog/browse/browse.asp?btype=6&serid=23 |title=Basic Bioethics |publisher=The MIT Press |date= |accessdate=2012-02-17}}</ref> His proposal for a California cloning policy was reprinted in ''Great American Speeches'', and a number of his articles have been reprinted in textbooks in bioethics, medical and other scientific fields. From 2005 to 2007, he wrote a monthly column for ''[[The Scientist (magazine)|The Scientist]]'', and during the same time a column for the ''[[Albany Times-Union]]''. Prior to that, he co-wrote a column on bioethics for MSNBC.com.<ref>{{cite web|last=McGee |first=Glenn |url=http://bioethics.net/articles.php?viewCat=2&page=8 |title=Article Topics: Bioethics on MSNBC |publisher=bioethics.net |date= |accessdate=2012-02-17}}</ref>\u000a\u000a===Books===\u000a*Beyond Genetics ISBN 0-06-000801-6\u000a*Bioethics for Beginners ISBN 978-0-470-65911-3\u000a*The Human Cloning Debate ISBN 1-893163-69-5\u000a*The Perfect Baby ISBN 0-8476-9759-2\u000a*Pragmatic Bioethics ISBN 0-262-63272-1\u000a*Pragmatism and Human Genetic Engineering ISBN 1-58112-020-6 \u000a*Who Owns Life ISBN 1-57392-986-7\u000a\u000a== References ==\u000a{{Reflist|colwidth=30em}}\u000a\u000a{{Authority control}}\u000a\u000a{{DEFAULTSORT:McGee, Glenn}}\u000a[[Category:Bioethicists]]\u000a[[Category:Bioethics]]\u000a[[Category:Living people]]\u000a[[Category:Vanderbilt University alumni]]\u000a[[Category:Academic journal editors]]\u000a[[Category:Baylor University alumni]]
p2
tp3
.