(VH. B. Acton
p1
V{{Infobox philosopher\u000a|region           = [[Western philosophy]]\u000a|era              = [[20th-century philosophy]]\u000a|color            = lightsteelblue\u000a|image       = \u000a|image_size       = \u000a|caption    = \u000a|name             = Harry Burrows Acton\u000a|birth_date       = {{birth date|1908|06|02}}\u000a|birth_place      = [[London]]\u000a|death_date       = {{death date and age|1974|06|16|1908|06|02}}\u000a|death_place      = [[Edinburgh]]\u000a|school_tradition = \u000a|main_interests   = \u000a|notable_ideas    = \u000a|influences       = \u000a|influenced       = \u000a|signature        = \u000a}}\u000a[[File:The grave of H B Acton, Grange Cemetery, Edinburgh.JPG|thumb|The grave of H B Acton, Grange Cemetery, Edinburgh]]\u000a'''Harry Burrows Acton''' (1908\u20131974) was an English academic in the field of [[political philosophy]], known for books defending the [[morality]] of [[capitalism]], and attacking [[Marxism-Leninism]].<ref name="BioDict20CPhil">{{cite book | title=Biographical Dictionary of Twentieth-Century Philosophers | year=1996 | publisher=Routledge | location=London | pages=4 | isbn=0-415-06043-5}}</ref> He in particular produced arguments on the incoherence of [[Marxism]], which he described as a 'farrago' (in philosophical terms). His book ''The Illusion of the Epoch'', in which this appears, is a standard point of reference. Other interests were the [[Marquis de Condorcet]], [[Hegel]], [[John Stuart Mill]], [[Herbert Spencer]], [[F. H. Bradley]], [[Bernard Bosanquet (philosopher)|Bernard Bosanquet]] and [[Sidney Webb]].\u000a\u000aHe had teaching positions at the [[London School of Economics]], [[Bedford College (London)|Bedford College]], the [[University of Edinburgh]] where he occupied the Chair of Moral Philosophy, and the [[University of Chicago]]. He was editor of ''Philosophy'', the journal of the [[Royal Institute of Philosophy]], of which he was for a time Director. He was president of the [[Aristotelian Society]] from 1952 to 1953.\u000a\u000aHe is buried in [[Grange Cemetery]] in [[Edinburgh]] close to the main entrance.\u000a\u000a==Works==\u000a*''The Illusion of the Epoch: Marxism-Leninism as a Philosophical Creed'' (1955)\u000a*''The Philosophy of Language in Revolutionary France'' (1959) Dawes Hicks Lecture of the [[British Academy]]\u000a*''What Marx Really Said'' (1967)\u000a*''Philosophy of Punishment'' (1969) editor\u000a*''Kant's moral philosophy'' (1970)\u000a*''The Morals of Markets: an Ethical Exploration'' (1971) essays edited by [[David Gordon (philosopher)|David Gordon]] and Jeremy Shearmur. 2nd edition (1993), [[Liberty Fund]], ISBN 978-0-86597-106-6\u000a*''The Right to Work and the Right to Strike'' (1972)\u000a*''The ethics of capitalism (The Company and its Responsibilities)'' (1972)\u000a*''The idea of a spiritual power: 1973 Auguste Comte memorial trust lecture'' (1974)\u000a\u000a== References ==\u000a{{Reflist}}\u000a\u000a==External links==\u000a* H.B. Acton, ''The Illusion of the Epoch: Marxism-Leninism as a Philosophical Creed'' (Indianapolis: Liberty Fund, 2003). ''See original text in [http://oll.libertyfund.org/index.php?option=com_staticxt&staticfile=show.php%3Ftitle=877&Itemid=99999999 The Online Library of Liberty]''.\u000a\u000a{{Authority control}}\u000a{{DEFAULTSORT:Acton, H.B.}}\u000a[[Category:1908 births]]\u000a[[Category:1974 deaths]]\u000a[[Category:Writers from London]]\u000a[[Category:20th-century philosophers]]\u000a[[Category:Academics of the University of Edinburgh]]\u000a[[Category:Academics of the London School of Economics]]\u000a[[Category:Academics of Royal Holloway, University of London]]\u000a[[Category:English philosophers]]\u000a[[Category:English political philosophers]]\u000a[[Category:People educated at St Olave's Grammar School]]\u000a[[Category:Presidents of the Aristotelian Society]]\u000a[[Category:English political writers]]\u000a[[Category:University of Chicago faculty]]\u000a[[Category:Burials at the Grange Cemetery]]
p2
tp3
.