(VHeiric of Auxerre
p1
V{{Use dmy dates|date=July 2013}}\u000a{{Expand French|date=May 2009|Heiric d'Auxerre}}\u000a'''Heiric of Auxerre''' <ref>Heiricus Autissiodorensis or Altissiodorensis, Eric of Auxerre.</ref> (841\u2013876) was a French [[Benedictine]] theologian and writer.\u000a\u000aHe was an [[Oblate (religion)|oblate]] of  the [[monastery]] of [[St. Germanus of Auxerre]] from a young age. He studied with [[Servatus Lupus]] and [[Haymo of Auxerre]]. His own students included [[Remigius of Auxerre]] and [[Hucbald]].\u000a\u000aHis ''Miracula sancti Germani'' was a verse life of [[St. Germanus]]. Other works include his ''Collectaeum'',<ref>''... a florilegium consisting mainly of extracts from classical authors, particularly [[Valerius Maximus]]'', Rosamond McKitterick, ''The Frankish Kingdoms under the Carolingians'' (1983), p. 290.</ref> a [[homiliary]], and glosses on the ''[[Categoriae decem]]''.\u000a\u000a==Notes==\u000a{{Reflist}}\u000a\u000a==External links==\u000a* {{BBKL|h/heiricus_v_a|band=2|autor= Friedrich Wilhelm Bautz|spalte=689}}\u000a* [http://www2.nd.edu/Departments/Maritain/etext/hop27.htm Chapter on the School of Auxerre] from ''The History of Philosophy'' by William Turner, 1903.\u000a* [http://www.labyreims.com/e-ericferme.html Heiric of Auxerre's labyrinth]\u000a\u000a{{Authority control}}\u000a\u000a{{DEFAULTSORT:Heiric Of Auxerre}}\u000a[[Category:841 births]]\u000a[[Category:876 deaths]]\u000a[[Category:French Benedictines]]\u000a[[Category:Medieval French theologians]]\u000a[[Category:Carolingian Latin writers]]
p2
tp3
.