(VIsaac Malitz
p1
V'''Isaac Richard Jay Malitz''' (born 1947, [[Cleveland, Ohio|Cleveland]], [[Ohio]]) is a logician who introduced the subject of [[positive set theory]] in his 1976 [[Doctor of Philosophy|Ph.D.]] Thesis at [[University of California, Los Angeles|UCLA]].\u000a\u000a== References ==\u000a* [http://genealogy.math.ndsu.nodak.edu/id.php?id=91603 Isaac (Richard) Jay Malitz] \u2013 entry in the Mathematics Genealogy Project\u000a\u000a{{DEFAULTSORT:Malitz, Isaac}}\u000a[[Category:1947 births]]\u000a[[Category:Living people]]\u000a[[Category:American logicians]]\u000a[[Category:University of California, Los Angeles alumni]]\u000a\u000a\u000a{{US-mathematician-stub}}
p2
tp3
.