(VJames Childress
p1
V{{Use mdy dates|date=February 2015}}\u000a\u000a'''James Franklin Childress''' ({{IPAc-en|\u02c8|t\u0283|\u026a|l|d|r|\u025b|s}}; born October 4, 1940) is a [[philosophy|philosopher]] and [[theology|theologian]] mainly concerned with [[ethics]], particularly biomedical ethics. Currently he is the John Allen Hollingsworth Professor of Ethics at the Department of Religious Studies at the [[University of Virginia]] and teaches public Policy at the [[Frank Batten School of Leadership and Public Policy]]. He is also Professor of Medical Education at this university and directs its Institute for Practical Ethics. He has obtained a B.A. from [[Guilford College]], a B.D. from [[Yale Divinity School]], and an M.A. and Ph.D. from [[Yale University]].\u000aHe was vice-chairman of the national Task Force on Organ Transplantation, and he has also served on the Board of Directors of the United Network for Organ Sharing (UNOS), the UNOS Ethics Committee, the Recombinant DNA Advisory Committee, the Human Gene Therapy Subcommittee, the Biomedical Ethics Advisory Committee, and several Data and Safety Monitoring Boards for NIH clinical trials. From 1996 to 2001, he served on the presidentially-appointed National Bioethics Advisory Commission. He is a fellow of the [[Hastings Center]], an independent [[bioethics]] research institution.\u000a\u000aHis works include:\u000a* with [[Tom Beauchamp]]: ''Principles of Biomedical Ethics'' (1985; [[Oxford University Press]], Oxford 2009, 6 ed.).\u000a* ''Practical reasoning in bioethics'', Bloomington: Indiana Univ. Pr. 1997.\u000a* ''A new dictionary of Christian ethics'', London: SCM Press 1986 (co-edited with John Macquarrie).\u000a* ''Who should decide? Paternalism in health care'', New York: Oxford Univ. Pr. 1982.\u000a* ''Moral responsibility in conflicts. Essays on nonviolence, war, and conscience'', Baton Rouge: Louisiana State Univ. Pr. 1982.\u000a* ''Priorities in biomedical ethics'', Philadelphia: Westminster Pr. 1981.\u000a* ''Civil disobedience and political obligation. A study in Christian social ethics'', New Haven: Yale Univ. Pr. 1971.\u000a\u000a==See also==\u000a* [[American philosophy]]\u000a* [[List of American philosophers]]\u000a* [[Principlism]]\u000a\u000a==External links==\u000a* [http://artsandsciences.virginia.edu/religiousstudies/people/jfc7c.html Personal webpage at University of Virginia]\u000a\u000a{{Authority control}}\u000a\u000a{{DEFAULTSORT:Childress, James}}\u000a[[Category:1940 births]]\u000a[[Category:American philosophers]]\u000a[[Category:Living people]]\u000a[[Category:American Christian theologians]]\u000a[[Category:University of Virginia faculty]]\u000a[[Category:Yale Divinity School alumni]]\u000a[[Category:Guilford College alumni]]\u000a[[Category:Christian ethicists]]\u000a[[Category:Bioethicists]]\u000a[[Category:Hastings Center Fellows]]\u000a[[Category:Guggenheim Fellows]]\u000a\u000a\u000a{{US-philosopher-stub}}
p2
tp3
.