(VJohn M. Cooper
p1
V{{BLP sources|date=October 2011}}\u000a'''John Milton Cooper, Jr.''' (born 1940) is an American [[historian]], [[author]], and [[educator]]. His specialization is late 19th- and early 20th-century American Diplomatic History. Cooper is [[Professor Emeritus]] at the [[University of Wisconsin-Madison]].<ref>[http://history.wisc.edu/emeriti_jc.htm University of Wisconsin&ndash;Madison]</ref>\u000a\u000aHis most recent book, ''[[Woodrow Wilson: A Biography]]'', was published in 2009. It is described as "the first major biography of America\u2019s twenty-eighth president in nearly two decades."<ref>[http://www.randomhouse.com/acmart/catalog/display.pperl?isbn=9780307265418 Random House]</ref> The book was a finalist for the [[Pulitzer Prize for Biography or Autobiography]].<ref>[http://www.pulitzer.org/bycat/Biography+or+Autobiography Biography or Autobiography]</ref>\u000a\u000a==Education==\u000a*Princeton University, ''summa cum laude'', 1961\u000a*Columbia University, PhD, 1968\u000a\u000a==Books==\u000a*''The Vanity of Power; American Isolationism and the First World War. 1914-1917''. Westport, Conn., Greenwood Publishing Corp., 1969 \u000a* Editor,  ''Causes and Consequences of World War I''. Chicago: Quadrangle Books, 1972 \u000a*''Walter Hines Page: The Southerner as American,1855-1918''. Chapel Hill:  University of North Carolina Press, 1977 \u000a*''The Warrior and the Priest: Woodrow Wilson and Theodore Roosevelt''. Cambridge, Mass.,: Harvard University Press, 1983 ISBN 9780674947511\u000a*''Pivotal Decades: The United States 1900-1920''. New York W.W. Norton & Co., 1990 \u000a*Editor with Charles E. Neu, ''The Wilson Era:  Essays in Honor of Arthur S. Link''.  Arlington Heights, ILL., Harlan Davidson, Inc., 1991 \u000a*''Breaking the Heart of the World:  Woodrow Wilson and the Fight for the League of Nations''. New York: Cambridge University Press, 2001 \u000a*''Woodrow Wilson: A Biography''. New York: Vintage: 2009 ISBN 9780307265418\u000a\u000a==References==\u000a{{Reflist}}\u000a\u000a==External links==\u000a* [http://history.wisc.edu/emeriti_jc.htm Faculty page] at the University of Wisconsin-Madison\u000a* [http://www.pritzkermilitarylibrary.org/Home/john-milton-cooper-jr.aspx Author interview] at the [[Pritzker Military Library]] on February 25, 2010\u000a*{{C-SPAN|John Milton Cooper}}\u000a\u000a{{Authority control}}\u000a\u000a{{DEFAULTSORT:Cooper, John M.}}\u000a[[Category:1940 births]]\u000a[[Category:Columbia University alumni]]\u000a[[Category:University of Wisconsin&ndash;Madison faculty]]\u000a[[Category:American biographers]]\u000a[[Category:Male biographers]]\u000a[[Category:American historians]]\u000a[[Category:American political writers]]\u000a[[Category:American male writers]]\u000a[[Category:Living people]]\u000a[[Category:Historians of the United States]]\u000a[[Category:Writers from Wisconsin]]\u000a[[Category:Guggenheim Fellows]]
p2
tp3
.