(VJohn Maeda
p1
V[[File:John Maeda Portrait by Helena Price.jpg|thumb|Taken for Helena Price's http://TechiesProject.com]]'''John Maeda''' is an American [[Business executive|executive]], [[designer]], [[Computer technologist|technologist]]. His work explores the area where business, design, and technology merge. He is Global Head, Computational Design and Inclusion at Automattic<ref>{{cite web\u000a  | url        = https://design.blog/2016/08/08/john-maeda/\u000a  | title      = John Maeda, Why Automattic?\u000a  | publisher  = Design.blog\u000a  | date       = August 18, 2016\u000a  | accessdate = 2016-08-18\u000a}}</ref> \u000aHe is formerly Design Partner at [[Kleiner Perkins Caufield & Byers]] (KPCB) where he advised startups on the business impact of design<ref>{{cite web\u000a  | url        = https://www.kpcb.com/news/john-maeda-joins-kleiner-perkins-caufield-byers-as-design-partner\u000a  | title      = John Maeda Joins Kleiner Perkins Caufield & Byers as Design Partner\u000a  | publisher  = Kleiner Perkins Caufield & Byers\u000a  | date       = December 4, 2013\u000a  | accessdate = 2014-01-25\u000a}}</ref> and continues as a Strategic Advisor. He also serves on the Board of Directors of consumer electronics company [[Sonos]] and global advertising firm [[Wieden+Kennedy]].\u000aHe was a Professor at the [[MIT Media Lab]] for 12 years, and then became the President of the [[Rhode Island School of Design]] (RISD) in 2008. In 2011, RISD faculty held a [[Motion of no confidence|vote of no confidence]] in Maeda,<ref>{{Cite web|url=http://www.providencejournal.com/breaking-news/content/20131204-risd-president-john-maeda-to-leave-for-job-in-silicon-valley.ece|title=RISD president John Maeda to leave for job in Silicon Valley|last=Siclen|first=Bill Van|access-date=2016-09-27}}</ref><ref>{{Cite web|url=http://artfcity.com/2011/03/11/risds-president-john-maeda-responds-to-no-confidence-vote/|title=RISD\u2019s President John Maeda Responds to No-Confidence Vote|last=Johnson|first=Paddy|date=2011-03-11|website=Art F City|access-date=2016-09-27}}</ref> and Maeda eventually resigned his position in 2013.<ref>{{cite web\u000a  | url        = http://www.risd.edu/about/news/2013/john-maeda-moves-on/\u000a  | title      = John Maeda Moves On\u000a  | publisher  = Rhode Island School of Design\u000a  | date       = December 18, 2013\u000a  | accessdate = 2014-01-25\u000a}}</ref> He joined eBay Inc. as Chair of their Design Advisory Board after RISD and while at KPCB. <ref>{{cite web\u000a  | url        = http://www.businesswire.com/news/home/20131204006457/en/John-Maeda-Chair-Newly-Formed-eBay-Design-Advisory\u000a  | title      = John Maeda to Chair Newly-Formed eBay Inc. Design Advisory Board\u000a  | publisher  = BusinessWire\u000a  | date       = December 4, 2013\u000a  | accessdate = 2014-01-25\u000a}}</ref>\u000a\u000aMaeda was originally a [[software engineering]] student at the [[Massachusetts Institute of Technology]], when he became fascinated with the work of [[Paul Rand]] and [[Muriel Cooper]]. Cooper was a director of MIT's Visible Language Workshop. After completing his bachelor's and master's degrees at MIT, Maeda studied in Japan at [[Tsukuba University]]'s Institute of Art and Design to complete his Ph.D. in design.\u000a\u000aAs an artist, Maeda\u2019s early work redefined the use of electronic media as a tool for expression by combining computer programming with traditional artistic technique, laying the groundwork for the interactive motion graphics that are taken for granted on the web today. He has exhibited in one-man shows in London, New York and Paris. His work is in the permanent collections of the Museum of Modern Art, the San Francisco Museum of Modern Art and the Cartier Foundation in Paris.\u000a\u000aAt RISD, Maeda led the movement to transform [[Science, Technology, Engineering, and Mathematics|STEM]] (Science, Technology, Engineering, and Math) to [[STEAM fields|STEAM]] by adding Art. He states:<blockquote>I believe art and design are poised to transform our economy in the 21st century like science and technology did in the last century<ref name="Congressional STEAM Event">{{cite web |\u000a  | url        = https://bonamici.house.gov/press-release/reps-bonamici-and-schock-announce-bipartisan-congressional-steam-caucus\u000a  | title      = Reps. Bonamici and Schock Announce Bipartisan Congressional STEAM Caucus\u000a  | publisher  = Office of Congresswoman Bonamici bonamici.house.gov website\u000a  | date       = February 2013\u000a  | accessdate = 2016-01-07\u000a}}</ref></blockquote> \u000a\u000aIn 1999, he was named one of the 21 most important people in the 21st century by ''[[Esquire (magazine)|Esquire]]''.<ref>{{cite web\u000a  | url        = http://www.esquire.com/features/twenty-one-more-1199\u000a  | title      = More of The Esquire 21\u000a  | publisher  = Esquire Magazine; Hearst Communications, Inc.\u000a  | date       = November 1999\u000a  | accessdate = 2008-04-11\u000a}}</ref> In 2001, he received the [[National Design Award]] for Communication Design in the United States and Japan's [[Mainichi Design Prize]].<ref>{{cite web\u000a  | url        = http://sap.mit.edu/resources/portfolio/maeda/\u000a  | title      = MAEDA NAMED ONE OF YEAR\u2019S MOST INFLUENTIAL DESIGNERS\u000a  | publisher  = MIT School of Architecture + Planning\u000a  | date       = June 2005\u000a  | accessdate = 2007-07-17\u000a}}</ref>\u000a\u000aIn 2006, Maeda published ''Laws of Simplicity'', his best-selling book to date, based on a research project to find ways for people to simplify their life in the face of growing complexity.\u000a\u000aIn 2009 he was inducted into the New York Art Director\u2019s Club Hall of Fame, and he received the AIGA Medal in 2011. He is a trustee of the [[Cooper\u2013Hewitt, National Design Museum]].<ref>{{cite web\u000a  | url        = http://www.cooperhewitt.org/board-trustees\u000a  | title      = Board of Trustees\u000a  | publisher  = Cooper-Hewitt National Design Museum\u000a  | accessdate = 2014-01-25\u000a}}</ref>\u000a\u000aIn 2015 he published his first Design In Tech Report<ref>{{cite web \u000a | url = http://designin.tech\u000a | title = Design in Tech Report 2015\u000a | publisher = KPCB\u000a | accessdate = 2016-03-19\u000a}}</ref> to connect the investing world with the world of design and technology.  A 2nd Design in Tech report<ref>{{cite web \u000a | url = http://www.kpcb.com/blog/design-in-tech-report-2016\u000a | title = Design in Tech Report 2016\u000a | publisher = KPCB\u000a | accessdate = 2016-03-19\u000a}}</ref> was published in 2016.\u000a\u000a==Bibliography==\u000a* ''Redesigning Leadership (Simplicity: Design, Technology, Business, Life)'', MIT Press, 2011\u000a* ''[https://books.google.com/books?id=lh9gRQ4i_zwC&printsec=frontcover The Laws of Simplicity]'', MIT Press, 2006.\u000a* ''Creative Code'', Thames and Hudson, 2004.\u000a* ''maeda@media'', Thames and Hudson / Rizzoli / Bangert Verlag, 2000.\u000a* ''Design By Numbers'', MIT Press, 1999.\u000a* ''Tap, Type, Write'', Digitalogue Co., 1998.\u000a* ''12 o\u2019clocks'', Digitalogue Co., 1997.\u000a* ''Flying Letters'', Digitalogue Co., 1996.\u000a* ''Reactive Square'', Digitalogue Co., 1995.\u000a\u000a==References==\u000a{{reflist}}\u000a\u000a==External links==\u000a{{commons category|John Maeda}}\u000a* [http://www.kpcb.com/partner/john-maeda Kleiner Perkins Caufield & Byers (KPCB) site]\u000a* [http://designin.tech/ 2015 KPCB #DesignInTech Report site]\u000a* {{TED speaker}}\u000a** [https://www.ted.com/talks/john_maeda_how_art_technology_and_design_inform_creative_leaders "How art, technology and design inform creative leaders" (TEDGlobal 2012)]\u000a** [http://www.ted.com/talks/john_maeda_on_the_simple_life "Designing for simplicity" (TED2007)] \u000a* [http://creativeleadership.com/ Creative Leadership blog]\u000a* [http://lawsofsimplicity.com/ The Laws of Simplicity site]\u000a* [http://www.maedastudio.com/ Maedastudio site]\u000a\u000a{{Authority control}}\u000a\u000a{{DEFAULTSORT:Maeda, John}}\u000a[[Category:1966 births]]\u000a[[Category:Living people]]\u000a[[Category:American graphic designers]]\u000a[[Category:Massachusetts Institute of Technology alumni]]\u000a[[Category:National Design Award winners]]\u000a[[Category:People from Seattle]]\u000a[[Category:University of Tsukuba alumni]]\u000a[[Category:MIT School of Architecture and Planning alumni]]\u000a[[Category:American people of Japanese descent]]\u000a[[Category:American academics of Japanese descent]]\u000a[[Category:American businesspeople of Japanese descent]]
p2
tp3
.