(VJohn_Greco (philosopher)
p1
V'''John Greco''' holds the Leonard and Elizabeth Eslick Chair in Philosophy. He received his Ph.D. from [[Brown University]] in 1989 and his AB from [[Georgetown University]] in 1983. His research interests are in epistemology and metaphysics and he has published widely on virtue epistemology, epistemic normativity, skepticism, and Thomas Reid. He is the Editor of [[American Philosophical Quarterly]].<ref>''The Blackwell Guide to Epistemology'' [1999, 2004], back cover.</ref> For 2013-15, together with [[Eleonore Stump]], he holds a $3.3 million grant from the [[John Templeton Foundation]] for a project on intellectual humility.<ref name="humility">{{cite web|title=The Philosophy and Theology of Intellectual humility|url=http://humility.slu.edu|accessdate=2014-04-24}}</ref>\u000a\u000a==Philosophical genealogy==\u000a* [[Alonzo Church]]\u000a** [[Nicholas Rescher]]\u000a*** [[Ernest Sosa]]\u000a**** John Greco<ref name=Genealogy>{{cite web|title=Philosophy Family Tree|url=https://philosophyfamilytree.wikispaces.com|accessdate=25 April 2014}}</ref>\u000a\u000a==Bibliography==\u000a\u000a{{Cite journal\u000a| volume = 85\u000a| issue = 2\u000a| pages = 245\u2013277\u000a| last = Greco\u000a| first = John\u000a| title = Internalism and epistemically responsible belief\u000a| journal = Synthese\u000a| accessdate = 2014-04-23\u000a| date = 1990\u000a| url = http://link.springer.com/article/10.1007/BF00484794\u000a| doi=10.1007/bf00484794\u000a}}\u000a\u000a{{Cite journal\u000a| volume = 23\u000a| issue = 3\u000a| pages = 413\u2013432\u000a| last = Greco\u000a| first = John\u000a| title = Virtues and vices of virtue epistemology\u000a| journal = Canadian Journal of Philosophy\u000a| accessdate = 2014-04-23\u000a| date = 1993\u000a| url = http://www.tandfonline.com/doi/pdf/10.1080/00455091.1993.10717329\u000a| doi=10.1080/00455091.1993.10717329\u000a}}\u000a\u000a{{Cite journal\u000a| volume = 26\u000a| issue = 1-2\u000a| pages = 81\u201396\u000a| last = Greco\u000a| first = John\u000a| title = A second paradox concerning responsibility and luck\u000a| journal = Metaphilosophy\u000a| accessdate = 2014-04-23\u000a| date = 1995\u000a| url = http://onlinelibrary.wiley.com/doi/10.1111/j.1467-9973.1995.tb00557.x/full\u000a| doi=10.1111/j.1467-9973.1995.tb00557.x\u000a}}\u000a\u000a{{Cite journal\u000a| volume = 33\u000a| issue = s13\u000a| pages = 273\u2013296\u000a| last = Greco\u000a| first = John\u000a| title = Agent reliabilism\u000a| journal = Nous\u000a| accessdate = 2014-04-23\u000a| date = 1999\u000a| url = http://onlinelibrary.wiley.com/doi/10.1111/0029-4624.33.s13.13/abstract\u000a| doi=10.1111/0029-4624.33.s13.13\u000a}}\u000a\u000a{{Cite journal\u000a| last = Greco\u000a| first = John\u000a|author2=Ernest Sosa\u000a| title = The Blackwell guide to epistemology\u000a| accessdate = 2014-04-23\u000a| date = 1999\u000a| url = http://philpapers.org/rec/GRETBG\u000a}}\u000a\u000a{{Cite book\u000a| publisher = Rowman & Littlefield Publishers\u000a| last = Goldman\u000a| first = Alvin\u000a|author2=Ernest Sosa |author3=Hilary Kornblith |author4=John Greco |author5=Jonathan Dancy |author6=Laurence Bonjour |author7=Linda Zagrebsky |author8=Julia Driver |author9=James Montmarquet |author10=Christopher Hookway\u000a | title = Knowledge, Belief, and Character: Readings in Contemporary Virtue Epistemology\u000a| accessdate = 2014-04-23\u000a| date = 2000\u000a| url = http://books.google.com/books?hl=en&lr=&id=5c4zAAAAQBAJ&oi=fnd&pg=PR3&dq=john+greco&ots=_zgiRlQkjd&sig=h2vPVvKNMqoGvBSGMpvQvgjCYoA\u000a}}\u000a\u000a{{Cite journal\u000a| pages = 287\u2013315\u000a| last = Greco\u000a| first = John\u000a| title = Virtues in epistemology\u000a| journal = Oxford handbook of epistemology\u000a| accessdate = 2014-04-23\u000a| date = 2002\u000a| url = http://books.google.com/books?hl=en&lr=&id=fLENuh8b1N8C&oi=fnd&pg=PA287&dq=john+greco&ots=MIDOR8qG17&sig=Maw7DXI4UHGydDvM2oAGKYCaTFM\u000a}}\u000a\u000a{{Cite journal\u000a| last = Greco\u000a| first = John\u000a| title = `Knowledge as Credit for True Belief\u000a| accessdate = 2014-04-23\u000a| date = 2003\u000a| url = http://philpapers.org/rec/GREKAC\u000a}}\u000a\u000a{{Cite journal\u000a| pages = 257\u2013269\u000a| last = Greco\u000a| first = John\u000a| title = Justification is not internal\u000a| journal = Contemporary debates in epistemology\u000a| accessdate = 2014-04-23\u000a| date = 2005\u000a| url = http://books.google.com/books?hl=en&lr=&id=sZZXTqeGn28C&oi=fnd&pg=PA325&dq=john+greco&ots=Tv9byr8pAK&sig=C8zZmazRfKxgpAYx5wJhfNZxCds\u000a}}\u000a\u000a{{Cite book\u000a| publisher = Cambridge University Press\u000a| last = Greco\u000a| first = John\u000a| title = Putting skeptics in their place: The nature of skeptical arguments and their role in philosophical inquiry\u000a| accessdate = 2014-04-23\u000a| date = 2007\u000a| url = http://books.google.com/books?hl=en&lr=&id=XfrTHY8Zg_QC&oi=fnd&pg=PP1&dq=john+greco&ots=yTn2TqSD-P&sig=cfpwXYU4-N10viGFmw-co96gvd8\u000a}}\u000a\u000a{{Cite journal\u000a| volume = 17\u000a| issue = 1\u000a| pages = 57\u201369\u000a| last = Greco\u000a| first = John\u000a| title = The nature of ability and the purpose of knowledge\u000a| journal = Philosophical issues\u000a| accessdate = 2014-04-23\u000a| date = 2007\u000a| url = http://onlinelibrary.wiley.com/doi/10.1111/j.1533-6077.2007.00122.x/full\u000a| doi=10.1111/j.1533-6077.2007.00122.x\u000a}}\u000a\u000a{{Cite journal\u000a| volume = 58\u000a| issue = 232\u000a| pages = 416\u2013436\u000a| last = Greco\u000a| first = John\u000a| title = What's wrong with contextualism?\u000a| journal = The Philosophical Quarterly\u000a| accessdate = 2014-04-23\u000a| date = 2008\u000a| url = http://onlinelibrary.wiley.com/doi/10.1111/j.1467-9213.2008.535.x/full\u000a| doi=10.1111/j.1467-9213.2008.535.x\u000a}}\u000a\u000a{{Cite journal\u000a| volume = 142\u000a| issue = 1\u000a| pages = 17\u201326\u000a| last = Greco\u000a| first = John\u000a| title = Knowledge and success from ability\u000a| journal = Philosophical Studies\u000a| accessdate = 2014-04-23\u000a| date = 2009\u000a| url = http://link.springer.com/article/10.1007/s11098-008-9307-0\u000a| doi=10.1007/s11098-008-9307-0\u000a}}\u000a\u000a{{Cite journal\u000a| pages = 313\u201322\u000a| last = Greco\u000a| first = John\u000a| title = The value problem\u000a| journal = Epistemic value\u000a| accessdate = 2014-04-23\u000a| date = 2009\u000a| url = http://commonweb.unifr.ch/artsdean/pub/gestens/f/as/files/4610/32943_103625.pdf\u000a}}\u000a\u000a{{Cite journal\u000a| last = Greco\u000a| first = John\u000a| title = Achieving knowledge\u000a| journal = A Virtue-Theoretic Account of Epistemic Normativity. Cambridge\u000a| accessdate = 2014-04-23\u000a| date = 2010\u000a| url = http://www.langtoninfo.com/web_content/9780521144315_frontmatter.pdf\u000a}}\u000a\u000a{{Cite book\u000a| publisher = Cambridge University Press\u000a| last = Greco\u000a| first = John\u000a| title = Achieving knowledge: A virtue-theoretic account of epistemic normativity\u000a| accessdate = 2014-04-23\u000a| date = 2010\u000a| url = http://books.google.com/books?hl=en&lr=&id=xi7vh3U5cggC&oi=fnd&pg=PR3&dq=john+greco&ots=RNsFBujfIG&sig=C7fywO_K5m95YAPDdH6Wb9AT4Bg\u000a}}\u000a\u000a{{Cite journal\u000a| last = Greco\u000a| first = John\u000a|author2=John Turri\u000a| title = Virtue epistemology\u000a| accessdate = 2014-04-23\u000a| date = 2011\u000a| url = http://philpapers.org/rec/GREVE-3\u000a}}\u000a\u000a==Notes==\u000a<references />\u000a\u000a{{Authority control}}\u000a\u000a{{DEFAULTSORT:Greco, John}}\u000a[[Category:1961 births]]\u000a[[Category:Living people]]\u000a[[Category:Epistemologists]]\u000a[[Category:American philosophers]]\u000a[[Category:Saint Louis University faculty]]\u000a[[Category:Fordham University faculty]]\u000a\u000a\u000a{{US-philosopher-stub}}
p2
tp3
.