(VLinda Trinkaus Zagzebski
p1
V'''Linda Trinkaus Zagzebski''' (born 1946) is an [[American people|American]] [[philosopher]]. She is [[George Lynn Cross Research Professor]], and [[Kingfisher College Chair of the Philosophy of Religion and Ethics]] at the [[University of Oklahoma]]. She writes in the areas of [[epistemology]], [[philosophy of religion]], and [[virtue theory]]. She is (2015-2016) president of the [[American Philosophical Association]] Central Division, and gave the [[Gifford Lectures]] at the [[University of Saint Andrews]] in the fall of 2015. She is past president of the American Catholic Philosophical Association, and past president of the Society of Christian Philosophers.<ref>http://faculty-staff.ou.edu/Z/Linda.T.Zagzebski-1/</ref> She was a 2011-2012 Guggenheim Fellow.<ref>http://www.gf.org/fellows/16981-linda-trinkaus-zagzebski</ref>\u000a\u000a==Life and philosophy==\u000aShe received her BA from [[Stanford University]], her MA from [[University of California, Berkeley]], and her Ph.D. from [[University of California Los Angeles]] (dissertation: ''Natural Kinds'').\u000a\u000aHer research in recent years has consisted of topics such as the intersection of [[ethics]] and [[epistemology]], [[religious epistemology]], religious ethics, virtue theory, and the varieties of [[fatalism]]. She delivered the Wilde Lectures in Natural Religion at [[Oxford University]] in the Spring of 2010 on epistemic authority. She is (2015-2016) president of the [[American Philosophical Association]] Central Division, and gave the [[Gifford Lectures]] at the [[University of Saint Andrews]] in the fall of 2015 on the topic of [[Exemplarist Virtue Theory]]. She is past president of the American Catholic Philosophical Association (1997-1998), and past president of the Society of Christian Philosophers (2004-2007).<ref>http://faculty-staff.ou.edu/Z/Linda.T.Zagzebski-1/</ref>\u000a\u000a\u000a===Epistemology===\u000aZagzebski is a pioneer in the field of [[virtue epistemology]].<ref>http://plato.stanford.edu/entries/epistemology-virtue/</ref> In ''Virtues of the Mind'' (1996), she sets out to solve certain problems in modern [[epistemology]] by developing an [[Aristotelianism|Aristotelian]] version of [[virtue theory]], and in the course of this project she lays out a general analysis of virtue. In ''Divine Motivation Theory'' (2004) she deals extensively with problems in the relationship between reason, faith, and ethics.\u000a\u000aShe has done work on questions of [[epistemic value]] including the "espresso machine" thought experiment (a predecessor to the [[swamping problem]]) as a counter to [[reliabilism]].<ref name="SEPValue">{{Cite web|url=http://plato.stanford.edu/entries/knowledge-value/|work=Stanford Encyclopedia of Philosophy|title=The Value of Knowledge|first1=Duncan|last1=Pritchard|first2=John|last2=Turri}}</ref><ref name="Pritchard-APQ">{{Cite journal|title=Recent Work on Epistemic Value|first=Duncan|last=Pritchard|work=American Philosophical Quarterly|date=April 2007|volume=44|number=2|pages=85\u2014110|url=http://www.jstor.org/stable/20464361}}</ref>\u000a\u000aIn her book, ''Epistemic Authority: A Theory of Trust, Authority, and Autonomy in Belief'' (2012), she defends a strong sense of epistemic authority including authority in moral and religious beliefs, and argues that belief on authority is a requirement of intellectual autonomy. This book arose out of her 2010 Wilde lectures at Oxford. \u000a\u000a==Bibliography==\u000a*{{cite book|title=Exemplarist Moral Theory|date=2017|publisher=Oxford University Press|isbn=978-0-1906-5584-6|url=https://global.oup.com/academic/product/exemplarist-moral-theory-9780190655846?cc=us&lang=en&}}\u000a*{{cite book||title=Epistemic Authority: A Theory of Trust, Authority, and Autonomy in Belief|date=2012|publisher=Oxford University Press|isbn=978-0-19-993647-2|url=https://books.google.com/books?id=T3bF5Nj70b0C&printsec=frontcover#v=onepage&q&f=false}}\u000a*{{cite book|title=On Epistemology|date=2008|publisher=Wadsworth Press|isbn=978-0-5342-5234-2|url=https://books.google.com/books/about/On_Epistemology.html?id=Md_OLcnALG0C}}\u000a*{{cite book| url=http://books.google.com/books?id=6J8mIPT0DqAC&printsec=frontcover&dq=Linda+Trinkaus+Zagzebski#v=onepage&q&f=false| title=Philosophy of Religion: An Historical Introduction| publisher =Wiley-Blackwell| year= 2007| isbn=978-1-4051-1872-9 }}\u000a*{{cite book| url=http://books.google.com/books?id=KhqPito92b8C&printsec=frontcover&dq=Linda+Trinkaus+Zagzebski#v=onepage&q&f=false| title=Divine Motivation Theory| publisher= Cambridge University Press| year= 2004| isbn= 978-0-521-53576-2 }}\u000a*{{cite book| url=http://books.google.com/books?id=w-YC4foOSBwC&printsec=frontcover&dq=Linda+Trinkaus+Zagzebski#v=onepage&q&f=false| title=Virtues of the Mind: An Inquiry Into the Nature of Virtue and the Ethical Foundations of Knowledge| publisher= Cambridge University Press| year= 1996| isbn= 978-0-521-57826-4 }}\u000a*{{cite book| url=http://books.google.com/books?id=0v9nLMBtGYcC&printsec=frontcover&dq=Linda+Trinkaus+Zagzebski#v=onepage&q&f=false| title=The Dilemma of Freedom and Foreknowledge | publisher =Oxford University Press | year=1991| isbn=978-0-19-510763-0 }}\u000a===Editor===\u000a*{{cite book| url= http://books.google.com/books?id=DIXenI021DkC&printsec=frontcover&dq=Linda+Trinkaus+Zagzebski#v=onepage&q&f=false| title=Virtue epistemology: essays on epistemic virtue and responsibility | editors= Abrol Fairweather, Linda Trinkaus Zagzebski | publisher= Oxford University Press | year= 2001 | isbn= 978-0-19-514077-4 }}\u000a*{{cite book| title=Intellectual virtue: perspectives from ethics and epistemology | editors=Michael Raymond DePaul, Linda Trinkaus Zagzebski | publisher= Clarendon| year= 2003| isbn=978-0-19-925273-2 }}\u000a\u000a==See also==\u000a* [[American philosophy]]\u000a* [[List of American philosophers]]\u000a\u000a==References==\u000a{{reflist}}\u000a\u000a==External links==\u000a*[http://muse.jhu.edu/login?uri=/journals/logos/v004/4.1zagzebski.html "Religious Diversity and Social Responsibility"], ''Logos: A Journal of Catholic Thought and Culture'', Volume 4, Number 1, Winter 2001, pp.&nbsp;135\u2013155\u000a\u000a{{Authority control}}\u000a\u000a{{DEFAULTSORT:Zagzebski, Linda Trinkaus}}\u000a[[Category:1946 births]]\u000a[[Category:Living people]]\u000a[[Category:American Christians]]\u000a[[Category:American philosophers]]\u000a[[Category:Christian philosophers]]\u000a[[Category:Moral philosophers]]\u000a[[Category:University of Oklahoma faculty]]\u000a[[Category:Guggenheim Fellows]]\u000a[[Category:American women philosophers]]\u000a[[Category:Epistemologists]]\u000a[[Category:21st-century philosophers]]\u000a[[Category:20th-century philosophers]]\u000a[[Category:Ethnicists]]\u000a\u000a\u000a{{US-philosopher-stub}}
p2
tp3
.