(VList of Confucianists
p1
VThis is a partial list of people who follow [[Confucianism]], selected for their influence on that belief, or for their fame in other areas.\u000a\u000a== Early Confucians ==\u000a*[[Confucius]] (\u5b54\u592b\u5b50 [[Pinyin]]: ''Kong fuzi'' [[Wade-Giles]]: ''K'ung fu-tzu'')&nbsp;\u2013 founder\u000a* [[Zisi]] (\u5b50\u601d)\u000a*[[Mencius]] (\u5b5f\u5b50 [[Pinyin]]: ''Meng zi'')\u000a*[[Xun Zi]] (\u8340\u5b50)\u000a\u000a== Japanese Confucianism ==\u000a*[[Fujiwara Seika]]\u000a*[[Hayashi Razan]]\u000a*[[Ogy\u016b Sorai]]\u000a*[[Toju Nakae]]\u000a\u000a== Korean Confucianism ==\u000a*[[Yi Hwang]]\u000a*[[Yi I]]\u000a\u000a== Neo-Confucians ==\u000a*[[Wang Yangming]]&nbsp;\u2013 important Idealist [[Neo-Confucianism|Neo-Confucian]].<ref>[http://www.iep.utm.edu/wangyang/ Internet encyplopedia of Philosophy]</ref>\u000a*[[Zhang Zai]]&nbsp;\u2013 pioneering Neo-Confucian.<ref>[http://www.iep.utm.edu/zhangzai/ Internet encyplopedia of Philosophy]</ref>\u000a*[[Zhou Dunyi]]&nbsp;\u2013 [[Song Dynasty]] philosopher.<ref>[http://www2.kenyon.edu/Depts/Religion/Fac/Adler/Writings/Chou.htm Kenyon College]</ref>\u000a*[[Zhu Xi]]&nbsp;\u2013 one of the leading Neo-Confucians of the Song Dynasty.<ref>[http://www.gutenberg.org/author/Zhu+Xi Gutenberg]</ref>\u000a\u000a== New Confucians ==\u000a*[[Tu Wei-Ming]] \u2013 advocate of "[[New Confucianism]]"\u000a*[[Xiong Shili]] \u2013 founding figure in "[[New Confucianism]]"\u000a*[[Ma Yifu]] \u2013 founding figure in "[[New Confucianism]]"\u000a\u000a== Western Confucians or scholars of Confucianism ==\u000a*[[Philip J. Ivanhoe]]\u000a*[[Robert Cummings Neville]]\u000a\u000a== Other ==\u000a*[[Wang Fuzhi]]\u000a*[[Huang Zongxi]]\u000a*[[Gu Xiancheng]]\u000a\u000a== References ==\u000a{{Reflist}}\u000a== See also ==\u000a*[[Disciples of Confucius]]\u000a*[[List of people by belief]]\u000a\u000a[[Category:Lists of people by belief|Confucianists]]\u000a[[Category:Confucianists| ]]
p2
tp3
.