(VMartin Stokhof
p1
V'''Martin Stokhof''' (born 1950, [[Amsterdam]]) is a [[Netherlands|Dutch]] [[logic]]ian and [[Philosophy|philosopher]]. Stokhof wrote a joint [[Doctor of Philosophy|Ph.D.]] dissertation with [[Jeroen Groenendijk]] on the [[semantics]] of questions, under the supervision of [[Renate Bartsch]] and [[Johan van Benthem (logician)|Johan van Benthem]]. He was also an important figure in the development of [[dynamic semantics]] (together with Groenendijk, Veltman and others). He is also known for his work on [[Ludwig Wittgenstein]].\u000a\u000aHe is a former director of the [[Institute for Logic, Language and Computation]] at the [[University of Amsterdam]] and a member of the group collectively publishing under the [[pseudonym]] [[L. T. F. Gamut]].<ref>Preface to ''Logic, Language and Meaning'', by [[L. T. F. Gamut]], University of Chicago Press, 1991.</ref>\u000a\u000aIn 2006 he was elected member of the [[Royal Netherlands Academy of Arts and Sciences]].<ref>{{cite web|author= |url=https://www.knaw.nl/en/members/members/6560 |title=Martin Stokhof |publisher=Royal Netherlands Academy of Arts and Sciences |date= |accessdate=30 July 2015}}</ref>\u000a\u000a==References==\u000a{{Reflist}}\u000a\u000a==External links==\u000a* [http://staff.science.uva.nl/~stokhof/ Stokhof's university homepage]\u000a\u000a{{Authority control}}\u000a{{DEFAULTSORT:Stokhof, Martin}}\u000a[[Category:1950 births]]\u000a[[Category:Living people]]\u000a[[Category:Dutch logicians]]\u000a[[Category:Dutch academics]]\u000a[[Category:Dutch philosophers]]\u000a[[Category:Members of the Royal Netherlands Academy of Arts and Sciences]]\u000a[[Category:Semanticists]]\u000a[[Category:Writers from Amsterdam]]\u000a[[Category:University of Amsterdam alumni]]\u000a[[Category:University of Amsterdam faculty]]\u000a\u000a\u000a{{Netherlands-philosopher-stub}}
p2
tp3
.