(VNorbert Bolz
p1
V{{Infobox philosopher\u000a|region           = [[Western philosophy]]\u000a|era              = [[20th-century philosophy]]\u000a|color            = lightsteelblue\u000a|image       = \u000a|image_size       = \u000a|caption    = \u000a|name             = Norbert Bolz\u000a|birth_date       = {{birth date and age|1953|4|17}}\u000a|birth_place      = [[Ludwigshafen]], [[Rhineland-Palatinate]], [[West Germany]]\u000a|death_date       = \u000a|school_tradition = \u000a|main_interests   = [[Media theory]], [[communication theory]]\u000a|notable_ideas    = ''{{lang|de|Theorie der neuen Medien}}''\u000a|influences       = [[Friedrich Nietzsche]], [[Walter Benjamin]], [[Friedrich Kittler]], [[Jacob Taubes]], [[Marshall McLuhan]]\u000a|influenced       = \u000a|signature        = \u000a}}\u000a'''Norbert Bolz''' (born April 17, 1953) is a [[Germany|German]] [[philosopher]] and [[media theory|media theorist]]. He is a professor at the [[Technical University of Berlin]].\u000a\u000aBolz developed a media theory, the ''"{{lang|de|Theorie der neuen Medien}}"'', that is influenced by [[Friedrich Nietzsche]], [[Walter Benjamin]] and [[Marshall McLuhan]].\u000a\u000a== Film and TV appearances ==\u000a\u000a* ''[[Marx Reloaded]]'', [[Arte]], April 2011.\u000a\u000a==External links==\u000a*[http://www.medienwissenschaft.tu-berlin.de/menue/mitarbeiter/prof_dr_norbert_bolz/ Profile at the TU Berlin]\u000a\u000a{{Authority control}}\u000a\u000a{{DEFAULTSORT:Bolz, Norbert}}\u000a[[Category:1953 births]]\u000a[[Category:Living people]]\u000a[[Category:German philosophers]]\u000a[[Category:Technical University of Berlin faculty]]\u000a[[Category:German male writers]]\u000a\u000a\u000a{{Germany-philosopher-stub}}
p2
tp3
.