(VRichard Ferrybridge
p1
V'''Richard Ferrybridge'''<ref>Richard Feribrigge, Ferribrigge, Ferrybrigge, Ferabrich, Ferebrich, Ferebrigge, Ferebrigus, Ferabricius etc.</ref> was an English [[Scholasticism|Scholastic]] [[logician]] of the fourteenth century.\u000a\u000aHis works include a ''Tractatus de veritate sive logica'', and the ''Consequentiae''.<ref>Printed 1493 in Venice as Ricardus de Ferabrich; [http://mediaevalia.unipr.it/html/autori/riccardoferabrich/consequentie.pdf page (PDF)].</ref> He is alluded to in ''[[The Anatomy of Melancholy]]''.<ref>As Ferribrigge, [http://www.exclassics.com/anatomy/anat155.htm].</ref>\u000a\u000a==References==\u000a*{{cite ODNB|id=53184|title=Feribrigge, Richard|first=E. J.|last=Ashworth}}\u000a\u000a==Notes==\u000a{{reflist}}\u000a\u000a{{DEFAULTSORT:Ferrybridge, Richard}}\u000a[[Category:English logicians]]\u000a[[Category:14th-century English people]]\u000a[[Category:English philosophers]]\u000a\u000a\u000a{{England-bio-stub}}
p2
tp3
.