(VRoger Chao
p1
V'''Roger Chao''', [[FRGS]], is an [[Australian]] explorer, [[mountain climber]], [[philosopher]] and [[ethicist]].<ref name="WEB">{{cite web|url=http://www.worldexplorersbureau.com/index.php/our-speakers/polar-speakers/roger-chao.html|title=Roger Chao|year=2012|publisher=The World Explorers Bureau|accessdate=4 December 2012}}</ref><ref name="Ambassador">{{cite web|url=http://www.australiaday.org.au/australia-day/ambassadors/vic/roger-chao.aspx|title=Roger Chao|publisher=[[National Australia Day Council|NADC]]|accessdate=4 December 2012}}</ref><ref name="IPF">{{cite web|url=http://www.explorapoles.org/explorers/profile/chao_roger/|title=Chao Roger|year=2012|work=ExploraPoles|publisher=[[International Polar Foundation]]|accessdate=4 December 2012}}</ref> In 2006, Chao and [[Stephen Fordyce]] completed a mid-winter traverse of the [[Arthur Range (Tasmania)|Western Arthurs range]] in south-west [[Tasmania]]. They received the 2006 [[Australian Geographic#Young Adventurer of the Year|Young Adventurer of the Year]] award from the [[Australian Geographic Society]].<ref name="WEB"/><ref name="SMH">{{cite news|url=http://www.smh.com.au/news/national/icing-on-the-cake-for-those-who-make-a-meal-of-adventure/2006/09/24/1159036415581.html|title=Icing on the cake for those who make a meal of adventure|journal=[[The Sydney Morning Herald]]|last=Lewis|first=Daniel|date=25 September 2006|accessdate=30 November 2012}}</ref><ref name="AGS">{{cite web|url=http://www.australiangeographic.com.au/society/adventure-awards-ag-society.htm|title=AG Society Adventure Awards|date=5 July 2010|publisher=[[Australian Geographic]]|accessdate=4 December 2012}}</ref><ref name="Partners">{{cite web|title=Partners|url=http://www.steppebysteppe.com.au/partners.html|date=November 2012|publisher=Steppe By Steppe&nbsp;\u2014 Side By Side|accessdate=4 December 2012}}</ref> In 2007, Chao crossed the [[Greenland ice sheet]] from east to west without support, becoming the youngest person to do so.<ref name="WEB"/><ref name="Roger">{{cite web|url=http://www.steppebysteppe.com.au/roger.html|title=Roger|date=November 2012|publisher=Steppe By Steppe&nbsp;\u2014 Side By Side|accessdate=4 December 2012}}</ref><ref name="Australia Day">{{cite web|url=http://australiaday.vic.gov.au/ambassadors/item/824-chao.html|title=Chao&nbsp;\u2014 Australia Day|date=30 November 2012|publisher=[[Department of Premier and Cabinet, Victoria|Australia Day (Victoria)]]|accessdate=4 December 2012}}</ref> He also investigated the effects of [[global warming]] on [[Inuit culture]] in [[Greenland]], and was elected a [[Fellow of the Royal Geographical Society]] in recognition of this research.<ref name="IPF"/><ref name="Roger"/><ref name="Australia Day"/> In 2009 and 2010, Chao and [[Megan Kerr]] undertook the "Steppe By Steppe&nbsp;\u2014 Side By Side" expedition in Central Asia, traveling on a Quike [[Quadracycle#Touring|touring quadracycle]] from [[Astana]], [[Kazakhstan]] through [[Uzbekistan]], [[Tajikistan]], [[Kyrgyzstan]] and [[Xinjiang]] (an [[Autonomous regions of the People's Republic of China|autonomous region]] in [[Western China]]).<ref name="Ambassador"/><ref name="Australia Day"/><ref name="Home">{{cite web|url=http://www.steppebysteppe.com.au/home.html|title=Home|date=November 2012|publisher=Steppe By Steppe&nbsp;\u2014 Side By Side|accessdate=30 November 2012}}</ref>\u000a\u000aChao is a 2003 graduate of [[Scotch College, Melbourne]], and has degrees in Arts (Politics and Philosophy) and Economics and an Honours degree in Philosophy/Ethics from [[Monash University]].<ref name="Roger"/><ref name="Scotch">{{cite journal|url=http://www.scotch.vic.edu.au/gscot/11sepgs/54.htm|last=Ashton|first=David|title='One of Australia's most prolific adventurers'|date=September 2011|journal=Great Scot|publisher=[[Scotch College, Melbourne|Scotch College]]|accessdate=4 December 2012}}</ref> Chao is also a [[Whitewater kayaking|whitewater kayaker]], [[caver]], [[rock climber]], [[skier]] and [[motivational speaker]].<ref name="WEB"/><ref name="Ambassador"/> He has worked at the Office of Environmental Sustainability, as a professional [[guide]] and expedition consultant, and as a section rep and delegate for [[Search and Rescue]].<ref name="IPF"/><ref name="Roger"/> Chao serves on the executive committee of [[The Explorers Club]].<ref name="WEB"/><ref name="Roger"/><ref name="Australia Day"/> He is a [[Victoria (Australia)|Victoria]] Ambassador for [[Australia Day]].<ref name="Ambassador"/><ref name="Scotch"/>\u000a\u000a== References ==\u000a<!--- See http://en.wikipedia.org/wiki/Wikipedia:Footnotes on how to create references using <ref></ref> tags which will then appear here automatically -->\u000a{{Reflist|2}}\u000a\u000a{{DEFAULTSORT:Chao, Roger}}\u000a<!--- Categories --->\u000a[[Category:21st-century philosophers]]\u000a[[Category:Articles created via the Article Wizard]]\u000a[[Category:Year of birth missing (living people)]]\u000a[[Category:Living people]]\u000a[[Category:Australian cavers]]\u000a[[Category:Australian environmentalists]]\u000a[[Category:Australian explorers]]\u000a[[Category:Australian motivational speakers]]\u000a[[Category:Australian mountain climbers]]\u000a[[Category:Australian philosophers]]\u000a[[Category:Australian rock climbers]]\u000a[[Category:Australian skiers]]\u000a[[Category:Australian ethicists]]\u000a[[Category:Fellows of the Royal Geographical Society]]\u000a[[Category:Kayakers]]\u000a[[Category:Monash University alumni]]\u000a[[Category:Place of birth missing (living people)]]\u000a[[Category:Polar explorers]]\u000a[[Category:Sportspeople from Victoria (Australia)]]\u000a\u000a{{Australia-academic-bio-stub}}\u000a{{Australia-sport-bio-stub}}
p2
tp3
.