(VTerence Parsons
p1
V'''Terence Parsons''' (born 1939) is an American contemporary philosopher of the [[Analytic philosophy|analytic]] tradition. Parsons is also a Professor at [[UCLA]] in its [[UCLA Department of Philosophy|Department of Philosophy]].\u000a\u000aHeavily influenced by [[Alexius Meinong]], he wrote ''Nonexistent Objects'' (1980), which dealt with [[possible world]] theory in order to defend the reality of nonexistent objects.\u000a\u000a==Works==\u000a* ''Nonexistent Objects'', Yale University Press, 1980. \u000a* ''Events in the Semantics of English'', MIT Press, 1990. \u000a* ''Indeterminate Identity'', Oxford University Press, 2000.\u000a* ''Articulating Medieval Logic'', Oxford University Press, 2014.\u000a\u000a==See also==\u000a{{Portal|Philosophy}}\u000a*[[Round square copula]]\u000a*[[Nonexistence]]\u000a*[[Paradoxes]]\u000a\u000a==External links==\u000a* [http://www.philosophy.ucla.edu/people/95-terence.html Parson's UCLA website]\u000a\u000a{{Authority control}}\u000a{{DEFAULTSORT:Parsons, Terence}}\u000a[[Category:Living people]]\u000a[[Category:Analytic philosophers]]\u000a[[Category:Metaphysicians]]\u000a[[Category:1939 births]]\u000a[[Category:University of California, Los Angeles faculty]]\u000a[[Category:UCLA Philosophy]]\u000a\u000a\u000a{{US-philosopher-stub}}
p2
tp3
.