(VTrenton Merricks
p1
V{{BLP sources|date=April 2011}}\u000a'''Trenton Merricks''' ({{IPAc-en|\u02c8|m|\u025br|i|k|s}}) is a philosopher<ref name="BennettZimmerman2011">{{cite book|last1=Bennett|first1=Karen|last2=Zimmerman|first2=Dean W.|title=Oxford Studies in Metaphysics|url=http://books.google.com/books?id=z6XhrBVcHRkC&pg=PA57|accessdate=26 April 2011|date=2011-04-08|publisher=Oxford University Press|isbn=978-0-19-960303-9|pages=57\u2013}}</ref> at the [[University of Virginia]]. His main fields are metaphysics, epistemology, and philosophy of religion.<ref>https://pages.shanti.virginia.edu/merricks/</ref> \u000a==Works==\u000a* ''Objects and Persons'' ([[Oxford University Press]], 2001)\u000a* ''Truth and Ontology'' ([[Oxford University Press]], 2007)\u000a\u000a==See also==\u000a* [[Mereological nihilism]]\u000a* [[Philosophy of religion]]\u000a* [[Growing block universe]]\u000a\u000a==References==\u000a{{Reflist}}\u000a\u000a{{Authority control}}\u000a\u000a{{DEFAULTSORT:Merricks, Trenton}}\u000a[[Category:21st-century philosophers]]\u000a[[Category:Christian philosophers]]\u000a[[Category:Living people]]\u000a[[Category:Metaphysicians]]\u000a[[Category:Epistemologists]]\u000a[[Category:Philosophers of religion]]\u000a[[Category:University of Virginia faculty]]\u000a[[Category:American philosophers]]\u000a\u000a\u000a{{US-philosopher-stub}}
p2
tp3
.