(VTripp York
p1
V'''Fred "Tripp" York''' is an activist, a professor of religious studies, and a prolific Mennonite writer (B.A., [[Trevecca Nazarene University]]; M.T.S., [[Duke University]]; Ph.D., Garrett-Evangelical Theological Seminary).<ref name="Elon">{{cite web |url=http://www.elon.edu/e-web/academics/elon_college/religious_studies/fac.xhtml |title=Elon University - Department of Religious Studies |publisher= Elon.edu|accessdate=2009-01-11}}</ref><ref>{{Cite web|url=http://trippyork.com/|title=Tripp York, PhD|website=Tripp York, PhD|language=en-US|access-date=2016-03-30}}</ref> His writings span a wide range of genres and subjects including: animals, [[martyrdom]], politics, violence, religious satire and comics. His most popular work is his satirical search for Satan in ''The Devil Wears Nada''.\u000a\u000aHe is the co-creator and co-editor of [http://www.peaceablekingdomseries.com/ The Peaceable Kingdom Series].\u000a\u000aYork belongs to the [[Mennonite]] tradition that has a 500-year history of [[Christian pacifism]].<ref>Justo L. Gonzalez,''The Story of Christianity, Vol. II'', (San Francisco: Harper, 1985).</ref> He has written extensively on the North American Christians' complicity with power and suggests a return to a more diasporic understanding of Christian practice.<ref>{{cite web|author= |url=http://mattlitton.com/2011/07/08/is-the-church-narrating-what-it-means-to-be-an-american-or-is-america-narrating-what-it-means-to-be-the-church-five-good-answers-with-dr-tripp-york-author-of-third-way-allegiance/ |title=Is the church narrating what it means to be an American or is America narrating what it means to be the church? Five Good Answers with Dr. Tripp York, Author of Third Way Allegiance |publisher=Matt Litton |date=2011-07-08 |accessdate=2014-03-12}}</ref> He emphasizes the lives of [[Christian anarchists]]<ref>{{cite web|url=http://www.elon.edu/e-net/Note.aspx?id=937429 |title=Christian anarchists topic of book by Tripp York |publisher=Elon.edu |date= |accessdate=2014-03-12}}</ref> such as [[Dorothy Day]], and [[Daniel Berrigan|Daniel]] and [[Philip Berrigan]].\u000a\u000aHe teaches at [[Virginia Wesleyan College]]<ref>{{cite web|author= |url=http://www.vwc.edu/religious-studies/faculty-and-staff.php?person_id=0570661 |title=Virginia Wesleyan College - A small Liberal Arts College located in Norfolk, Virginia |publisher=Vwc.edu |date= |accessdate=2014-03-12}}</ref> in [[Norfolk, VA]].  He previously taught at [[Elon University]] and Western Kentucky University.\u000a\u000a==Works==\u000a*''The End of Captivity? A Primate's Reflections on Zoos, Conservation, and Christian Ethics''. Cascade Books, 2015.\u000a*''A Faith Encompassing All Creation''. Cascade Books, 2014.\u000a*''A Faith Embracing All Creatures''. Cascade Books, 2013.\u000a*''A Faith Not Worth Fighting For''. Cascade Books, 2012.\u000a*''The Devil Wears Nada''. Cascade Books, 2011.\u000a*''Third Way Allegiance: Christian Witness in the Shadow of Religious Empire''. Cascadia Publishing, 2011.\u000a*''The Gift of Difference: Radical Orthodoxy, Radical Reformation'', with Chris K. Huebner, CMU Press, 2010.\u000a*''Donkeys and Kings''. Resource Publications, 2010.\u000a*''Living on Hope While Living in Babylon: The Christian Anarchists of the 20th Century''. Wipf & Stock, 2009.\u000a*''[[Anesthesia: A Brief Reflection on Contemporary Aesthetics]]''. Seaburn Press, 2008.\u000a*''The Purple Crown: The Politics of Martyrdom''. Herald Press, 2007.\u000a*''Calculated Futures: Theology, Ethics and Economics'', with D. Stephen Long and Nancy Ruth Fox. Baylor University Press, 2007.\u000a\u000a==References==\u000a{{Reflist}}\u000a\u000a==External links==\u000a* [http://www.christianethicstoday.com/cetart/index.cfm?fuseaction=Authors.main&AuthorID=283 Author's articles at Christian Ethics Today]\u000a\u000a{{Authority control}}\u000a\u000a{{DEFAULTSORT:York, Tripp}}\u000a[[Category:Living people]]\u000a[[Category:American Mennonites]]\u000a[[Category:American theologians]]\u000a[[Category:Anarchist academics]]\u000a[[Category:Christian anarchists]]\u000a[[Category:Christian writers]]\u000a[[Category:Mennonite theologians]]\u000a[[Category:Mennonite writers]]\u000a[[Category:Trevecca Nazarene University alumni]]\u000a[[Category:Duke University alumni]]\u000a[[Category:1973 births]]\u000a[[Category:American Christian pacifists]]\u000a[[Category:Western Kentucky University faculty]]\u000a[[Category:Elon University faculty]]
p2
tp3
.