(VVladimir Andreyevich Uspensky
p1
V{{BLP primary sources|date=August 2012}}\u000a{{distinguish|J. V. Uspensky}}\u000a{{Infobox scholar\u000a| image            = Vladimir-uspensky.jpg\u000a| image_size       = \u000a| alt              = \u000a| caption          = \u000a| name             = Vladimir Andreevich Uspensky\u000a| fullname         = \u000a| other_names      = Vladimir Uspensky, Uspenski, Uspenskii, Uspenskij, Ouspenski, Uspenskiy\u000a| birth_date       = 11/27/1930\u000a| birth_place      = Moscow, USSR\u000a| death_date       = \u000a| death_place      = \u000a| era              = \u000a| region           = Russia\u000a| school_tradition = \u000a| main_interests   = Foundation of mathematics, mathematical logic, computability theory, mathematical linguistics\u000a| notable_ideas    = \u000a| major_works      = \u000a| influences       = \u000a| influenced       = \u000a}}\u000a\u000a'''Vladimir A. Uspensky''' (Russian: \u0412\u043b\u0430\u0434\u0438\u0301\u043c\u0438\u0440 \u0410\u043d\u0434\u0440\u0435\u0301\u0435\u0432\u0438\u0447 \u0423\u0441\u043f\u0435\u0301\u043d\u0441\u043a\u0438\u0439; born November 27, 1930, [[Moscow]]) is a Russian [[mathematician]], linguist, writer, doctor of physics and mathematics (1964). He is the author of numerous papers on mathematical logic and linguistics. In addition, he has also penned a number of memoir essays. Uspensky initiated a reform of linguistic education in Russia.\u000a\u000a== Biography ==\u000a\u000aUspensky graduated in 1952 from the [[MSU Faculty of Mechanics and Mathematics]] [[Moscow State University|(Lomonosov Moscow State University)]]. He was a student of [[Andrey Kolmogorov]]. He is the head of the Chair of Mathematical Logic and Theory of Algorithms in the [[MSU Faculty of Mechanics and Mathematics]] (1995) and one of the founders of the Structural Linguistics branch (now the Theoretical and Applied Linguistics branch) in the [[MSU Faculty of Philology]], where he also teaches.\u000aHe is the author of many books and of over 100 research papers. He has prepared 25 candidates and 4 doctors of sciences. His book "The Apology of Mathematics" received in 2010 the \u201cEnlightener" award in the field of natural and exact sciences. He is a distinguished professor at the Moscow State University (1998).\u000aHis brother [[Boris Uspensky]] is a distinguished Russian philologist and mythographer.\u000a\u000a==References==\u000a*[http://www.mccme.ru/free-books/usp.htm V.A. Uspensky. \u0422\u0440\u0443\u0434\u044b \u043f\u043e \u043d\u0435\u043c\u0430\u0442\u0435\u043c\u0430\u0442\u0438\u043a\u0435. \u041c.: \u041e\u0413\u0418, 2002, \u0442. I\u2014II.] ISBN 5-94282-087-2 (\u0442.1), ISBN 5-94282-088-0 (\u0442.2)\u000a* [http://elementy.ru/lib/430915 Chapter from the book "\u0410\u043f\u043e\u043b\u043e\u0433\u0438\u044f \u043c\u0430\u0442\u0435\u043c\u0430\u0442\u0438\u043a\u0438"]\u000a* [http://a-bugaev.chat.ru/uspensky.html V.A. Uspensky: Seven reflections on the themes of philosophy of mathematics]\u000a* [http://www.premiaprosvetitel.ru/news/view/?82 V.A. Uspensky: Lecture on mathematics as part of the culture, and the Poincare conjecture]\u000a\u000a==External links==\u000a* [http://genealogy.math.ndsu.nodak.edu/id.php?id=17546 Mathematics Genealogy Project entry]\u000a* [http://lpcs.math.msu.su/~uspensky/index.htm MSU home page]\u000a* [http://dynkincollection.library.cornell.edu/biographies/925 Dynkin Collection entry with video interviews]\u000a* [http://magazines.russ.ru/authors/u/uspenskij/ Russian listing of publications]\u000a* [http://www.mathnet.ru/php/person.phtml?option_lang=rus&personid=20219 Math-Net.ru list of publications, including video lectures]\u000a\u000a{{Authority control}}\u000a{{DEFAULTSORT:Uspensky, Vladimir}}\u000a[[Category:Living people]]\u000a[[Category:1930 births]]\u000a[[Category:Linguists from Russia]]\u000a[[Category:Russian mathematicians]]\u000a[[Category:Russian non-fiction writers]]\u000a[[Category:Writers from Moscow]]\u000a[[Category:Moscow State University alumni]]\u000a[[Category:Moscow State University faculty]]\u000a[[Category:Soviet mathematicians]]\u000a\u000a{{Russia-mathematician-stub}}\u000a{{russia-linguist-stub}}
p2
tp3
.