(VYi I
p1
V{{About|the 16th century Korean scholar|the DDG 992 ''Yulgok Yi I'' ship|King_Sejong_the_Great_class_destroyer#Ships_in_the_class{{!}}DDG 992 ''Yulgok Yi I''}}\u000a{{korean name|[[Lee (Korean name)|Yi]]}}\u000a[[File:Sitting_Yi_I.jpg|thumb|180px|Yi I]]\u000a{{Infobox Korean name\u000a| hangul=\uc774\uc774 \u000a| hanja=[[wikt:\u674e|\u674e]][[wikt:\u73e5|\u73e5]]\u000a| rr=I I\u000a| mr=Yi I\u000a| img=\u000a| imgwidth=250px\u000a| hangulja=\uc219\ud5cc \u000a| hanjaja=[[wikt:\u53d4|\u53d4]][[wikt:\u737b|\u737b]]\u000a| rrja=Sukheon\u000a| mrja=Sukh\u014fn\u000a| hangulho=\uc728\uace1\u000a| hanjaho=[[wikt:\u6817|\u6817]][[wikt:\u8c37|\u8c37]]\u000a| rrho=Yulgok\u000a| mrho=Yulgok\u000a}}\u000a'''Yi I''' ({{korean|hangul=\uc774\uc774|hanja=\u674e\u73e5}}, December 26, 1536 \u2013 1584) was one of the two most prominent [[Korea]]n [[Korean Confucianism|Confucian]] scholars of the [[Joseon Dynasty]], the other being his older contemporary, [[Yi Hwang]] (Toegye).<ref>Daehwan, Noh. [https://web.archive.org/web/20110614035130/http://www.ekoreajournal.net/upload/html/HTML43412.html "The Eclectic Development of Neo-Confucianism and Statecraft from the 18th to the 19th Century,"] {{wayback|url=http://www.ekoreajournal.net/upload/html/HTML43412.html |date=20110614035130 }} ''Korea Journal.'' Winter 2003.</ref>  Yi I is often referred to by his [[pen name]] '''Yulgok''' ("[[Chestnut]] valley"). He is not only known as a scholar but also as a revered politician and reformer.<ref name="yi i doosan">{{ko}} [http://100.naver.com/100.nhn?docid=127580 Yi I] at [[Doosan Encyclopedia]]</ref> He was academical successor of [[Jo Gwang-jo]].\u000a\u000a== Life ==\u000aYi I was born in [[Gangneung]], [[Gangwon-do (South Korea)|Gangwon Province]] in 1536. His father was a Fourth State Councillor (''jwachanseong'' \uc88c\ucc2c\uc131) and his mother, [[Shin Saimdang]], the accomplished artist and [[calligraphy|calligraphist]]. He was the grand nephew of [[Yi Gi]], [[prime minister]] 1549 to 1551.{{citation needed|date=January 2012}} early years he was learn of [[Baik In-geol]], successor of [[Jo Gwang-jo]]. late years, It is said that by the age of seven he had finished his lessons in the [[Confucian]] classics, and passed the Civil Service literary examination at the age of 13. Yi I secluded himself in [[Kumgang-san]] following his mother's death when he was 16 and stayed for 3 years, studying [[Buddhism]]. He left the mountains at 20 and devoted himself to the study of [[Confucianism]].<ref name="yi i aks">{{ko}} [http://people.aks.ac.kr/front/tabCon/ppl/pplView.aks?pplId=PPL_6JOa_A1536_1_0010341&isEQ=true&kristalSearchArea=true Yi I] at The Academy of Korean Studies</ref><ref name="yi i ekc">{{ko}} [http://100.nate.com/dicsearch/pentry.html?s=K&i=251870&v=44] at Encyclopedia of Korean Culture</ref>\u000a\u000aHe married at 22 and a half, went to visit [[Yi Hwang]] at [[Dosan Seowon|Dosan]] the following year. He passed special exams with top honors with a winning thesis titled ''Cheondochaek'' (hangul:\ucc9c\ub3c4\ucc45, hanja: \u5929\u9053\u7b56, "Book on the Way of Heaven"), which was widely regarded as a literary masterpiece, displaying his knowledge of history and the Confucian [[philosophy]] of politics, and also reflecting his profound knowledge of [[Taoism]].<ref>Lee Eunjik(\uc774\uc740\uc9c1) translated by Jeong Hongjun(\uc815\ud64d\uc900), ''Great Joseon Masters'' Vol.2 (\uc870\uc120\uba85\uc778\uc804 2) p35, Ilbit Publishing, Seoul, 2005. ISBN 89-5645-087-0</ref> He continuously received top honors on civil exams for a consecutive 9 times. His father died when he was 26.<ref name="yi i doosan"/> He served in various positions in government from the age of 29, and visited the [[Ming Dynasty]] as ''seojanggwan'' (hangul: \uc11c\uc7a5\uad00, hanja: \u66f8\u72c0\u5b98, document officer) in 1568. He also participated in the writing of the ''[[Myeongjong of Joseon|Myeongjong]] Annals'' and at 34, authored ''Dongho Mundap'', an eleven-article political memorial devoted to clarifying his conviction that a righteous government could be achieved.<ref name="Dongho Mundap">{{ko}} [http://100.naver.com/100.nhn?docid=50749 Dongho Mundap] at [[Doosan Encyclopedia]]</ref>\u000a\u000aDue to his vast experience in different offices over the years, Yi I was able to garner a wide vision of politics and with the deep trust of the king, became one of the central figures of politics by the time he was 40. His many documents and theses were presented to the royal court but when political conflicts escalated in 1576, his efforts proved fruitless and he returned home. Following his return, he devoted his time to studies and education of his disciples and authored several books.<ref name="yi i doosan"/>\u000a\u000aHe returned to office at 45 and while holding various minister positions, produced many writings which recorded crucial political events and showed his efforts to ease the political conflicts that were rampant at that time. However, [[Seonjo of Joseon|King Seonjo]] was noncommittal in his attitude and it became difficult for Yi I to remain in a neutral position in the conflicts. He left office in 1583 and died the following year.<ref name="yi i doosan"/>\u000a\u000aAccording to legend, he had a pavilion built near the ford of the [[Imjin River]] in his lifetime and instructed his heirs to set it ablaze when the king had to flee northward from Seoul, to provide a guiding beacon. This took place during Hideyoshi's invasions of Korea at the [[Japanese invasions of Korea (1592-1598)|Imjin war]].<ref>Choi Beomseo (\ucd5c\ubc94\uc11c), ''Unofficial History of Joseon Vol. 2'' p52, Garam Publishing, Seoul, 2003.  ISBN 89-8435-143-1</ref>\u000a\u000a==Teachings==\u000aYi I was not only known as a philosopher but also as a social reformer. He did not completely agree with the dualistic [[Neo-Confucianism]] teachings followed by [[Yi Hwang]]. His school of [[Neo-Confucianism]] placed emphasis on the more concrete, material elements; rather than inner spiritual perception, this practical and pragmatic approach valued external experience and learning.<ref>Lee Hyun-hee, Park Sung-soo, Yoon Nae-hyun, translated by The Academy of Korean Studies, ''New History of Korea'' p393, Jimoondang, Paju, 2005. ISBN 89-88095-85-5</ref> Unlike [[Yi Hwang]], who suffered through tumultuous times and did not enjoy being in politics, Yi I was an active official who thought it important to implement Confucian values and principles to government administration. He emphasized sage learning and self-cultivation as the base of proper administration.<ref name="yi i aks"/><ref name="yi i ekc"/>\u000a\u000aYi I is also well known for his foresight about [[national security]]. He proposed to draft and reinforce the army against a possible Japanese attack. His proposal was rejected by the central government, his worry was found to be well-founded soon after his death, during the [[Japanese invasions of Korea (1592\u20131598)|Imjin war]].<ref name="yi i ekc"/>\u000a\u000a==Selected works==\u000aYi I's published writings encompass 193 works in 276 publications in 6 languages and 2,236 library holdings.<ref>[http://www.oclc.org/research/activities/identities/default.htm  WorldCat Identities]: [http://www.worldcat.org/identities/lccn-n79-150399  Yi, I 1536-1584]</ref>\u000a{{dynamic list}}\u000a*''Questions and Answers at East Lake'' (hangul:\ub3d9\ud638\ubb38\ub2f5, hanja:\u6771\u6e56\u554f\u7b54) - Eleven articles about political reform.<ref name="Dongho Mundap"/>\u000a*''Memorial in Ten Thousand Words'' (hangul: \ub9cc\uc5b8\ubd09\uc0ac, hanja: \u842c\u8a00\u5c01\u4e8b) - Suggestions about Confucian learning, self-cultivation, and application to government administration.<ref>{{ko}} [http://100.naver.com/100.nhn?docid=59726 Maneon Bongsa] at [[Doosan Encyclopedia]]</ref>\u000a*''The Essentials of the Studies of the Sages'' (hangul: \uc131\ud559\uc9d1\uc694, hanja: \u8056\u5b78\u8f2f\u8981) - Fundamentals of Confucian ethics, self-cultivation and statecraft.<ref>{{ko}} [http://100.naver.com/100.nhn?docid=92453 Seonhak Jibyo] at [[Doosan Encyclopedia]]</ref>\u000a*''The Secret of Expelling Ignorance'' (hangul: \uaca9\ubabd\uc694\uacb0, hanja: \u64ca\u8499\u8981\u8a23) - Systematic guide of learning.<ref>{{ko}} [http://100.naver.com/100.nhn?docid=9208 Gyeokmong Yogyel] at [[Doosan Encyclopedia]]</ref>\u000a*''Daily Records of Lectures before the Throne'' (hangul: \uacbd\uc5f0\uc77c\uae30, hanja: \u7d93\u7b75\u65e5\u8a18) - Record of political events and happenings.<ref>{{ko}} [http://100.naver.com/100.nhn?docid=10676 Gyeongyeon Ilgi] at [[Doosan Encyclopedia]]</ref>\u000a*''The Complete Works of Yulgok'' (hangul: \uc728\uace1\uc804\uc11c, hanja: \u6817\u8c37\u5168\u66f8) was compiled after his death on the basis of the writings he bequeathed.<ref>{{ko}} [http://100.naver.com/100.nhn?docid=123949 Yulgok Jeonseo] at [[Doosan Encyclopedia]]</ref>\u000a\u000a==In modern culture==\u000a[[File:5000 won serieV obverse.jpeg|right|250px|thumb|Yi I on the currently circulating 5,000 [[South Korean won|won]] note]]\u000aYulgongno, a street in central [[Seoul]], is named after him,<ref>{{ko}} [http://100.naver.com/100.nhn?docid=854763 Yulgongno] at [[Doosan Encyclopedia]]</ref> and he is depicted on the [[South Korea]]n 5,000 [[South Korean won|won]] note.<ref>{{ko}} [http://terms.naver.com/item.nhn?dirId=701&docId=8770 Money bill designs] at [[Naver]] dictionary</ref> The [[Taekwondo]] pattern [[International Taekwondo Federation#Patterns|Yul-Gok]] was also named in his honor. This is the pattern required to advance from 5th Kup Green Belt with Blue Tag to 4th Kup Blue Belt. The 38 movements of this pattern refer to his birthplace on the 38th degree latitude.<ref>[http://www.taekwondo-information.org/yul-gok.html Yulgok Taekwondo pattern]</ref> The "Yulgok Project", a modernization project for the South Korean military, is named after him as well.<ref>Cha Yeonggu (\ucc28\uc601\uad6c), ''Theory and Actuality of National Defense Policies'' (\uad6d\ubc29\uc815\ucc45\uc758 \uc774\ub860\uacfc \uc2e4\uc81c) p86, Oruem, Seoul, 2002. ISBN 89-7778-156-6.</ref>\u000a\u000a==See also==\u000a*[[Korean Confucianism]]\u000a*[[Yi Hwang]]\u000a*[[Korean philosophy]]\u000a*[[List of Korea-related topics]]\u000a*[[List of Joseon Dynasty people]]\u000a*[[History of Korea]]\u000a\u000a==Notes==\u000a{{reflist}}\u000a{{Commonscat|Yi I}}\u000a{{wikisource|Author:Yi I}}\u000a\u000a==References==\u000a* Chung, Edward Y. J. (1995). ''The Korean Neo-Confucianism of Yi T\u02bboegye and Yi Yulgok: a Reappraisal of the 'Four-Seven Thesis' and its Practical Implications for Self-Cultivation''<!-- pp 26-32 -->. Albany: State University of New York Press. ISBN 9780791422755; ISBN 9780791422762; [http://www.worldcat.org/title/korean-neo-confucianism-of-yi-toegye-and-yi-yulgok-a-reappraisal-of-the-four-seven-thesis-and-its-practical-implications-for-self-cultivation/oclc/30594574?referer=di&ht=edition  OCLC 30594574]\u000a* Daehwan, Noh. [https://web.archive.org/web/20110614035130/http://www.ekoreajournal.net/upload/html/HTML43412.html "The Eclectic Development of Neo-Confucianism and Statecraft from the 18th to the 19th Century,"] ''Korea Journal.'' Winter 2003.\u000a* Haboush, JaHyun Kim and [[Martina Deuchler]]. (1999). ''Culture and the State in Late Chos\u014fn Korea.''  Cambridge: Harvard University Press. ISBN 9780674179820; [http://www.worldcat.org/title/culture-and-the-state-in-late-choson-korea/oclc/40926015&referer=brief_results  OCLC 40926015]\u000a* Lee, Peter H. (1993). ''Sourcebook of Korean Civilization,'' Vol.  1. New York: Columbia University Press. ISBN 9780231079129; ISBN 9780231079143; ISBN 9780231104449; [http://www.worldcat.org/title/sourcebook-of-korean-civilization/oclc/26353271&referer=brief_results  OCLC 26353271]\u000a\u000a== External links ==\u000a*[http://www.yulgok.or.kr/ Yulgok Academy]\u000a*[http://www.ojukheon.or.kr/museum/main.jsp Ojukheon & Gangneung Municipal Museum]\u000a*[http://www.ekoreajournal.net/upload/html/HTML4244.html Yulgok and the Logic of Li and Qi]\u000a*[http://homepage.ruhr-uni-bochum.de/sven.k.herbers-lee/dateien/ygyy.html Selected bibliography]\u000a\u000a{{Authority control}}\u000a\u000a{{DEFAULTSORT:Yi, I}}\u000a[[Category:1536 births]]\u000a[[Category:1584 deaths]]\u000a[[Category:Korean Confucianists]]\u000a[[Category:Korean philosophers]]\u000a[[Category:Joseon Dynasty writers]]\u000a[[Category:16th-century Korean people]]\u000a[[Category:People from Gangneung]]
p2
tp3
.