(VAdolf Lindenbaum
p1
V'''Adolf Lindenbaum''' (June 12, 1904 in [[Warsaw]], Kingdom of Poland, Russian Empire (now [[Poland]])&nbsp;\u2013 1941 in [[Paneriai]]), was a [[Poland|Polish]] [[logician]] and [[mathematician]].\u000a\u000aHe was a student of [[Wac\u0142aw Sierpi\u0144ski]], became a distinguished author of works on [[set theory]] and had served as an [[Assistant Professor]] at [[Warsaw University]]. He was killed by the Germans in Paneriai (Ponary), near [[Vilnius]].\u000a\u000aAmong his most famous works are the [[Lindenbaum's lemma]] and [[Lindenbaum\u2013Tarski algebra]].\u000a\u000a==References==\u000a*[http://www-groups.dcs.st-and.ac.uk/~history/Mathematicians/Sierpinski.html Page on Sierpinski], contains fragments of his memoirs mentioning the murder of Lindenbaum\u000a*  An entry about Lindenbaum written by [[Edward Marczewski]] and [[Andrzej Mostowski]], [[Polski s\u0142ownik biograficzny]], Tom XVII, p.&nbsp;364\u2013365\u000a*  An Open Access [http://www.springerlink.com/openurl.asp?genre=article&id=doi:10.1007/s11787-014-0108-2 article] on Lindenbaum\u2032s life and works in ''Logica Universalis'', Volume 8, Issue 3\u20134 (December 2014), pp 285\u2013320\u000a\u000a{{Authority control}}\u000a\u000a{{DEFAULTSORT:Lindenbaum, Adolf}}\u000a[[Category:1904 births]]\u000a[[Category:1941 deaths]]\u000a[[Category:20th-century mathematicians]]\u000a[[Category:Polish logicians]]\u000a[[Category:Polish Jews]]\u000a[[Category:Polish mathematicians]]\u000a[[Category:Set theorists]]\u000a[[Category:Polish people executed by Nazi Germany]]\u000a[[Category:People from Warsaw]]\u000a[[Category:Victims of the Ponary massacre]]\u000a[[Category:Polish philosophers]]\u000a[[Category:Philosophers who died in the Holocaust]]\u000a[[Category:Executed people from Masovian Voivodeship]]\u000a\u000a\u000a{{Poland-mathematician-stub}}
p2
tp3
.