(VAlan Ryan
p1
V{{otherpeople}}\u000a\u000a'''Alan James Ryan''', [[Fellow of the British Academy|FBA]] (born 9 May 1940) was Warden of [[New College, Oxford]], and Professor of [[Politics]] at the [[University of Oxford]]<ref name=Birth>{{cite web|title=Birthday's today|url= http://www.telegraph.co.uk/archive/2013-5-9.html |publisher=The Telegraph|accessdate=29 April 2014|date=9 May 2013|quote=Prof Alan Ryan, Warden of New College, Oxford, 1996\u20132009, 73 }}</ref> and is currently a lecturer at [[Princeton University]].<ref>Christopher Hood, Desmond King, & Gillian Peele, eds, ''Forging a Discipline'', Oxford University Press, 2014, page vii.</ref>\u000a\u000a==Biography==\u000aHe was educated at [[Christ's Hospital]], [[Balliol College, Oxford]], and [[University College, London]].  Elected a fellow of New College in 1969, he later taught at Princeton University, and returned to New College, Oxford, in 1996 to take up the Wardenship. He was made a Fellow of the British Academy in 1986.\u000a\u000aA political theorist and historian of political thought, Ryan is a recognised authority on development of modern [[liberalism]], and especially the work of [[John Stuart Mill]], having contributed directly to the \u2018Reversionary\u2019 school, which led to a re-examination of Mill's work from the 1970s. His academic work also takes in broader themes in [[political theory]], including the [[philosophy of social science]], the nature of [[property]], the history of political thought, and [[liberalism]] of the 19th and 20th centuries.\u000a\u000aRyan has held positions at the Universities of Oxford, [[University of Essex|Essex]], [[University of Keele|Keele]] and [[Princeton University]] and [[University of Virginia School of Law]]. He was also a Visiting Professor of Political Science at The University of Texas at Austin, Australian National University, The New School and many others.\u000a\u000aRyan is a regular contributor to ''[[The New York Review of Books]]'', the ''[[London Review of Books]]'', and ''[[The Times Literary Supplement]]'', and continues to write on political theory and the history of political thought.<ref>E.g. Alan Ryan, "Paradigms Lost: How Oxford Escaped the Paradigm Wars of the 1960s and 1970s", in Christopher Hood, Desmond King, & Gillian Peele, eds, ''Forging a Discipline'', Oxford University Press, 2014, page vii.</ref>\u000a\u000a==Books==\u000a*''[[The Philosophy of John Stuart Mill]]'' (1970): an examination of Mill's philosophy of science, its relation to his ethical thought, and a defence of the view that Mill's work is largely coherent, concentrating on Mill's ''A System of Logic''.\u000a*''[[The Philosophy of the Social Sciences]]'' (1970): an introduction to the philosophy of social science.\u000a*''[[J.S. Mill (book)|J.S. Mill]]'' (1975): a guide through the important works of Mill, and the themes to be found therein.\u000a*''[[Property and Political Theory]]'' (1984)\u000a*''[[Property (Alan Ryan book)|Property]]'' (1987)\u000a*''[[Russell: A Political Life]]'' (1993)\u000a*''[[John Dewey and the High Tide of American Liberalism]]'' (1995)\u000a*''[[Liberal Anxieties and Liberal Education]]'' (1998): given as a lecture series at the University of California, Berkeley, contains autobiographical material.\u000a*''[[On Politics: A History of Political Thought: From Herodotus to the Present]]'' (2012) traces the origins of political philosophy from the ancient Greeks to Machiavelli in Book I and from Hobbes to the present age in Book II\u000a*''[[The Making of Modern Liberalism]]'' (2012) exploration of the origins and nature of liberalism from the Enlightenment through its triumphs and setbacks in the twentieth century\u000a\u000a== References ==\u000a{{reflist}}\u000a\u000a==External links==\u000a{{wikiquote}}\u000a*[http://www.booknotes.org/Watch/63370-1/Alan+Ryan.aspx ''Booknotes'' interview with Ryan on the Introduction to Alexis de Tocqueville's ''Democracy in America'', February 26, 1995]\u000a*[http://www.prospect-magazine.co.uk/list.php?author=173 ''Prospect'' magazine]\u000a*[http://www.nybooks.com/authors/232 ''New York Review of Books'']\u000a*[http://users.ox.ac.uk/~ajryan/mycv.html Alan Ryan: CV]\u000a*[http://www.politics.ox.ac.uk/about/staff/staff.asp?action=show&person=94&special= Department of Politics and International Relations]\u000a*''Debrett's People of Today'' (12th edn, London: Debrett, 1999), p.&nbsp;1715\u000a*[http://www.bbc.co.uk/radio4/history/inourtime/ram/gpv_adv_js_mill.ram Defence of Mill by Ryan as the greatest British philosopher]\u000a\u000a{{Heads of Houses}}\u000a\u000a{{Use dmy dates|date=October 2010}}\u000a\u000a{{Authority control}}\u000a\u000a{{DEFAULTSORT:Ryan, Alan}}\u000a[[Category:1940 births]]\u000a[[Category:Living people]]\u000a[[Category:20th-century philosophers]]\u000a[[Category:21st-century philosophers]]\u000a[[Category:Alumni of Balliol College, Oxford]]\u000a[[Category:Alumni of University College London]]\u000a[[Category:Academics of Keele University]]\u000a[[Category:Academics of the University of Essex]]\u000a[[Category:English political philosophers]]\u000a[[Category:Princeton University faculty]]\u000a[[Category:Fellows of New College, Oxford]]\u000a[[Category:Fellows of the British Academy]]\u000a[[Category:People educated at Christ's Hospital]]\u000a[[Category:Philosophers of social science]]\u000a[[Category:Liberalism]]
p2
tp3
.