(VAlasdair Urquhart
p1
V{{Use dmy dates|date=November 2012}}\u000a{{Distinguish|Alistair Urquhart}}\u000a[[Image:Urquhart Alasdair.jpg|thumb|Alasdair Urquhart at the Association of Symbolic Logic, Pittsburgh, May 2004]]\u000a'''Alasdair Ian Fenton Urquhart'''  /\u02c8\u025crk\u0259rt/, born 20 December 1945, is an [[emeritus]] [[Professor]] of [[Philosophy]] at the [[University of Toronto]].  He has made notable contributions to the field of [[logic]], especially [[non-classical logic]].  One of his most notable achievements is proving the [[decidability (logic)|undecidability]] of the [[relevance logic]] '''R'''. He also published numerous papers in major [[theoretical computer science]] venues, mostly on [[mathematical logic]] topics of [[logic in computer science|relevance to computer science]].\u000a\u000aA native of [[Scotland]],<ref>{{cite web|url=http://www.whockey.com/work/dcs/dcs/people/faculty/urquhart.html|title="Alasdair Urquhart was born in Scotland in 1945"|publisher=Department of Computer Science - University of Toronto|accessdate=2 April 2010}}</ref> Urquhart received his [[MA (Scotland)|MA]] in Philosophy from the [[University of Edinburgh]] in 1967, and his [[Ph.D.]] from the [[University of Pittsburgh]] in 1973 under the supervision of [[Alan Ross Anderson]] and [[Nuel Belnap]].\u000a\u000a== Selected publications ==\u000a* "The Undecidability of Entailment and Relevant Implication."  ''[[Journal of Symbolic Logic]]'' 49(4): 1059-1073 (1984).\u000a* with [[Stephen A. Cook]], "Functional Interpretations of Feasibly constructive Arithmetic", ''[[Annals of Pure and Applied Logic]]'', 1993; preliminary version at [[STOC]]'89\u000a* "The Complexity of Decision Procedures in Relevance Logic II", J. Symbolic Logic, Volume 64, Issue 4 (1999), 1774-1802.\u000a\u000a== References ==\u000a{{reflist}}\u000a\u000a== External links ==\u000a* [http://stanford.library.usyd.edu.au/archives/win2000/subject-editors/urquhart.html Curriculum vitae (1998)]\u000a* [http://www.informatik.uni-trier.de/~ley/db/indices/a-tree/u/Urquhart:Alasdair.html DBLP publications]\u000a\u000a{{Authority control}}\u000a{{DEFAULTSORT:Urquhart, Alasdair}}\u000a[[Category:1945 births]]\u000a[[Category:Living people]]\u000a[[Category:Scottish logicians]]\u000a[[Category:Scottish mathematicians]]\u000a[[Category:Alumni of the University of Edinburgh]]\u000a[[Category:Scottish philosophers]]\u000a[[Category:University of Pittsburgh alumni]]\u000a[[Category:Scottish emigrants to Canada]]\u000a[[Category:University of Toronto faculty]]\u000a\u000a\u000a{{Scotland-academic-bio-stub}}\u000a{{UK-mathematician-stub}}\u000a{{UK-philosopher-stub}}
p2
tp3
.