(VBob Meyer (logician)
p1
V\u000a'''Robert Kenneth "Bob" Meyer''' (27 May 1932 \u2013 6 May 2009) was a logician and Professor Emeritus at the [[Australian National University]]. \u000a\u000aFirst trained to be a minister at the Union Congregational Church by the [[Princeton Theological Seminary]] in 1956, he completed his graduate studies in [[philosophy]] and [[logic]] at the [[University of Pittsburgh]]. He moved to [[Australia]] and joined the [[Australian National University]] in 1974.<ref>[http://users.rsise.anu.edu.au/~rkm/ Home page of Bob Meyer]</ref> He worked in [[relevant logic]], particularly on its semantics. {{clarify|date=May 2009}}\u000a\u000aHe was the Maximum Leader for the [[Logicians Liberation League]], and drafted its manifesto.<ref>[http://users.rsise.anu.edu.au/~rkm/manifesto.html Logicians Liberation League Manifesto]</ref>\u000a\u000aDespite his accomplishments in the areas of philosophy and logic, he fell short in the understanding of the passage of time.  On one of his journeys from Philadelphia Pennsylvania to Washington DC, he estimated that the 150 mile drive would take him "Three or four or five hours".  On one occasion he lost his passport in the USA one hour prior to his flight to Australia and estimated he had enough time to get a new one "after a shower and a quick stop at the Barnes and Noble".\u000a\u000a==Death==\u000aBob Meyer died of [[lung cancer]] on 6 May 2009, aged 76, in [[Canberra, Australia]].\u000a\u000a==References==\u000a{{Reflist}}\u000a\u000a{{DEFAULTSORT:Meyer, Bob}}\u000a[[Category:Australian logicians]]\u000a[[Category:American logicians]]\u000a[[Category:Deaths from lung cancer]]\u000a[[Category:People from Canberra]]\u000a[[Category:Princeton Theological Seminary alumni]]\u000a[[Category:University of Pittsburgh alumni]]\u000a[[Category:1932 births]]\u000a[[Category:2009 deaths]]\u000a[[Category:Deaths from cancer in the Australian Capital Territory]]\u000a[[Category:Australian National University faculty]]\u000a[[Category:Australian philosophers]]\u000a[[Category:American philosophers]]\u000a[[Category:20th-century philosophers]]
p2
tp3
.