(VDavid Kolb
p1
V{{for|the educational theorist|David A. Kolb}}\u000a'''David Kolb''' (born 1939<ref>{{cite LAF|id=n85-374118}}</ref>) is an American philosopher and the [[Charles A. Dana (philanthropist)|Charles A. Dana]] Professor Emeritus of Philosophy at [[Bates College]] in [[Maine]].\u000a\u000aKolb received a B.A. from [[Fordham University]] in 1963 and an M.A. in 1965.  He later received a M.Phil. from [[Yale University]] in 1970 and a Ph. D. in 1972.  Kolb's Dissertation was titled "Conceptual Pluralism and Rationality." Most of Kolb's writing deals with "what it means to live with historical connections and traditions at a time when we can no longer be totally defined by that history."  Professor Kolb taught at the [[University of Chicago]] before moving to Bates in 1977 and teaching there until 2005, when he took emeritus status.  \u000a\u000a==Works==\u000aKolb has written many articles and published several books including:\u000a*''The Critique of Pure Modernity: [[Hegel]], [[Heidegger]], and After'', 1987\u000a*''Postmodern Sophistications: Philosophy, Architecture, and Tradition'', 1990\u000a*''New Perspectives on Hegel's Philosophy of Religion'', 1992\u000a*''Socrates in the Labyrinth: Hypertext, Argument, Philosophy'', 1994\u000a*''Sprawling Places'', 2008\u000a\u000a==See also==\u000a*[[American philosophy]]\u000a*[[List of Bates College people]]\u000a*[[Lists of philosophers]]\u000a*[[List of American philosophers]]\u000a\u000a==References==\u000a{{Reflist}}\u000a\u000a==External links==\u000a*[http://www.dkolb.org/ dkolb.org]\u000a*[http://www.bates.edu bates.edu]\u000a*{{worldcat id|lccn-n85-374118}}\u000a\u000a{{Authority control}}\u000a{{DEFAULTSORT:Kolb, David}}\u000a[[Category:1939 births]]\u000a[[Category:Living people]]\u000a[[Category:20th-century philosophers]]\u000a[[Category:21st-century philosophers]]\u000a[[Category:American philosophers]]\u000a[[Category:American political philosophers]]\u000a[[Category:American political theorists]]\u000a[[Category:Moral philosophers]]\u000a[[Category:Social philosophers]]\u000a[[Category:Metaphysicians]]\u000a[[Category:Bates College faculty]]\u000a[[Category:Yale University alumni]]\u000a[[Category:Fordham University alumni]]\u000a[[Category:Hegelian philosophers]]\u000a[[Category:Idealists]]\u000a[[Category:American logicians]]\u000a[[Category:Romanticism]]\u000a[[Category:Theories of history]]\u000a[[Category:Philosophy teachers]]\u000a[[Category:American metaphysics writers]]\u000a\u000a\u000a{{US-philosopher-stub}}
p2
tp3
.