(VDavid Prychitko
p1
V{{Infobox economist\u000a | school_tradition = [[Austrian School]]\u000a | color           = firebrick\u000a | image   = Dr. David Prychitko.jpg\u000a | caption = David Prychitko\u000a | name             = David Prychitko\u000a | birth_date       = {{Birth date and age|1962|6|22|df=y}}\u000a | birth_place      = [[Evergreen Park, Illinois]]\u000a | nationality     = [[United States]]    \u000a | alma_mater      = [[Northern Michigan University]]<br>[[George Mason University]]\u000a |field            = Market process theory, Comparative political economy, History of economic thought and methodology\u000a |influences       = [[Ludwig von Mises]], [[F. A. Hayek]], [[Armen Alchian]], [[Don Lavoie]]\u000a |influenced       =\u000a}}\u000a'''David L. Prychitko''' (born June 22, 1962) is an American [[economist]] of the [[Austrian School]]. Prychitko is a critic of [[Marxism]],<ref>{{cite news|url=http://www.econlib.org/library/Enc1/Marxism.html|publisher=Library of Economics and Liberty|title=Marxism|date=2002}}</ref> but defends the idea of workers' self-managed firms in a freed market system. Prychitko is a tenured professor at [[Northern Michigan University]].<ref>{{cite news|url=http://www.nmu.edu/economics/node/7|publisher=Northern Michigan University|title=Economics Department Faculty and Staff}}</ref>\u000a\u000a==Early life and education==\u000aPrychitko was born in [[Evergreen Park, Illinois]] to Harry and Joanne Prychitko. He is of [[Ukrainians|Ukrainian]] and [[Italian people|Italian]] descent. He was raised in Worth, Illinois, and is a 1980 graduate of [[Alan Shepard]] High School in [[Palos Heights]], Illinois. He remained in Worth until he moved to Michigan to attend [[Northern Michigan University]] in Marquette, a small city in the [[Upper Peninsula]] of [[Michigan]]. After completing his B.S. in Economics (1984), Prychitko attended [[George Mason University]] in [[Fairfax, Virginia]], where he earned an M.A. (1987) and a Ph.D. (1989) in economics. At George Mason he was a student of [[Kenneth Boulding]], [[James M. Buchanan|James Buchanan]], [[Don Lavoie]], and [[Thelma Z. Lavine]]. Lavoie chaired Prychitko's dissertation committee. Michael Alexeev, Jack High, and Karen I. Vaughn served as the economists on the committee, and [[Tom R. Burns|Tom Burns]], a [[sociologist]], served as the "outside the discipline" committee member.\u000a\u000aBefore completing his Ph.D., Prychitko was also a Junior Fellow in the Program on Participation and Labor-Managed systems in the Department of Economics at [[Cornell University]] in [[Ithaca]], New York (1988). He finished writing his dissertation research there, with some influence under the program's director, [[Jaroslav Vanek]].\u000a\u000a==Professional history==\u000aAfter receiving his doctorate, Prychitko conducted post-doctoral research on a [[Fulbright]] Grant in the Philosophical Faculty at the [[University of Zagreb]], in [[Zagreb]], [[Croatia]] (1989). While there he had also participated in several courses at the [[Inter-University Centre]] of Postgraduate Studies in [[Dubrovnik]], Croatia, including Political Theory and Political Education\u2014Anarchism: Community and Utopia. That course was celebrated as the first gathering in [[Yugoslavia]] of scholars of anarchism in forty or more years. During his stay at the Inter-University Centre, Prychitko also critically discussed the theory and practice of workers' self-managed socialism with several members of the Yugoslav [[Praxis School]], including [[Zagorka Golubovic]], [[Mihailo Markovic]], Svetozar Stojanovic, and [[Rudi Supek]].\u000a\u000aAfter his return from Yugoslavia, Prychitko served as a faculty member in the Department of Economics at the [[State University of New York at Oswego]], in [[Oswego, New York]] (1989\u20131997). During that time, he participated as a Summer Fellow in the Faculty Seminar on Economy, Values, and Culture, at the Institute for the Study of Economic Culture, [[Boston University]] in [[Boston, Massachusetts]] (1992), a program directed by the noted sociologist, [[Peter L. Berger|Peter Berger]].\u000a\u000aPrychitko was also a Faculty Affiliate in the Program in Philosophy, Politics, and Economics of the James M. Buchanan Center for Political Economy, George Mason University (2001\u20132004). Additionally, he held the Cecil and Ida Green Chair in Economics at [[Texas Christian University]] in [[Fort Worth, Texas]] (2003\u20132004). Prychitko has been a faculty member in the Department of Economics at Northern Michigan University since 1997.<ref>http://aditweb.nmu.edu/telephone/directory/web/dept_listing.php?searchname=ECONOMICS&return=yes&outside=yes</ref>\u000a\u000aNon-professionally, Prychitko was a college-radio blues disc jockey for several years, a volunteer position he held at radio stations [[WNYO (FM)|WNYO]] in Oswego, New York and [[WUPX (FM)|WUPX]] in Marquette, Michigan. He is now a member of WUPX's Board of Control. He has since become a devotee of old-time fiddle music, and is one of a handful of Appalachian-style fiddlers in Michigan's Upper Peninsula.\u000a\u000aHe lives in [[Marquette, Michigan]] with his wife Julie.  They have four children, Sonja, Emily, Anthony, and Anna.\u000a\u000a==Bibliography==\u000a\u000a===As author or co-author===\u000a* ''Marxism and Workers' Self-Management: The Essential Tension'' (Greenwood Press, 1991) ISBN 0-313-27854-7.\u000a* ''Markets, Planning and Democracy: Essays after the Collapse of Communism'' (Elgar, 2002) ISBN 1-84064-519-9.\u000a* ''The Economic Way of Thinking'' co-authored with [[Paul Heyne]] and [[Peter Boettke]] (Pearson 2014) ISBN 978-0-13-299129-2. This textbook has been translated into [[Mandarin Chinese|Chinese]], [[Hungarian language|Hungarian]], [[Japanese language|Japanese]], and [[Russian language|Russian]].\u000a\u000a===As editor or co-editor===\u000a* ''Market Process: Essays in Contemporary Austrian Economics'' co-edited and introduced with [[Peter Boettke]] (Elgar, 1994) ISBN 978-1-85278-854-4.\u000a* ''Individuals, Institutions, Interpretations: Hermeneutics Applied to Economics'' (Avebury, 1995) ISBN 1-85628-968-0.\u000a* ''Advances in Austrian Economics, Vol. III'' with [[Peter Boettke]] (JAI Press, 1996) ISBN 978-0-7623-0055-6.\u000a* ''Producer Cooperatives and Labor-Managed Systems'' two volumes co-edited and introduced with [[Jaroslav Vanek]] (#62 in the International Library of Critical Writings in Economics, Mark Blaug, series editor, Elgar, 1996) ISBN 1-85898-189-1.\u000a* ''[[Ludwig von Mises]] and [[F.A. Hayek]], "O Slobodnom Trzistu: Klesicni Eseji'' ("The Free Market: Classic Essays"). Croatian translations co-edited and introduced with [[Nevenka Cuckovic]] (MATE, 1998)\u000a* ''Why Economists Disagree: An Introduction to the Alternative Schools of Thought'' (State University of New York Press, 1998 ) ISBN 0-7914-3569-5 (hardcover) and ISBN 0-7914-3570-9 (paperback)\u000a* ''Market Process Theories'' two volumes co-edited and introduced with [[Peter Boettke]] (Elgar Publishing, 1998)\u000a\u000a==Selected articles==\u000a\u000a===As author or co-author===\u000a* "Beyond Equilibrium Economics: Reflections on the Uniqueness of the Austrian Tradition" (with [[Peter Boettke]] and [[Steven Horwitz]]), ''Market Process'', 4 (2), Fall 1986\u000a* "The Welfare State: What is Left?," ''Critical Review'', 4 (2), 1990\u000a* "Ludwig Lachmann and the Interpretive Turn in Economics: A Critical Inquiry into the Hermeneutics of the Plan," ''Advances in Austrian Economics'', Vol I (1994)\u000a* "Expanding the Anarchist Range: A Critical Reappraisal of Rothbard's Contribution to the Contemporary Theory of Anarchism," ''Review of Political Economy'', 9 (4), 1997\u000a* "Hayekian Socialism: Rethinking Burczak, Ellerman, and Kirzner," ''Rethinking Marxism'', 10 (2) Summer 1998\u000a* "Is an Independent Nonprofit Sector Prone to Failure? Toward an Austrian School Interpretation of Nonprofit and Voluntary Action" (with [[Peter Boettke]]), ''Conversations on Philanthropy Vol. I: Conceptual Foundations'', 2004, [[Lenore Ealy]] ed.\u000a* "Communicative Action and the Radical Constitution: The Habermasian Challenge to Hayek, Mises, and their Descendants" (with [[Virgil Storr]]), ''Cambridge Journal of Economics'' 31 (2) March 2007\u000a* "Competing Explanations of the Minsky Moment: The Financial Instability Hypothesis in Light of Austrian Theory," ''Review of Austrian Economics'', 23 September 2010\u000a* {{cite encyclopedia |last1=|first1=  |authorlink1=  |last2=  |first2=  |authorlink2= |editor= [[David R. Henderson]] (ed.) |encyclopedia=[[Concise Encyclopedia of Economics]] |title=Marxism |url=http://www.econlib.org/library/Enc/Marxism.html |year=2008 |edition= 2nd |publisher=[[Library of Economics and Liberty]] |location=Indianapolis |isbn=978-0865976658 |oclc=237794267}}\u000a\u000a==References==\u000a{{Reflist}}\u000a\u000a==External links==\u000a* [http://researchgate.net/profile/David_Prychitko Prychitko's ResearchGate page]\u000a* [https://nmu.academia.edu/DavePrychitko Prychitko's Academia.edu page]\u000a* {{Goodreads author}}\u000a\u000a{{Austrian economists}}\u000a{{Authority control}}\u000a\u000a{{DEFAULTSORT:Prychitko, David}}\u000a[[Category:1962 births]]\u000a[[Category:Living people]]\u000a[[Category:American bloggers]]\u000a[[Category:American book editors]]\u000a[[Category:American classical liberals]]\u000a[[Category:American economics writers]]\u000a[[Category:American economists]]\u000a[[Category:American libertarians]]\u000a[[Category:American male writers]]\u000a[[Category:American political theorists]]\u000a[[Category:Anarchist academics]]\u000a[[Category:Anarchist theorists]]\u000a[[Category:Austrian School economists]]\u000a[[Category:Fulbright Scholars]]\u000a[[Category:Historians of economic thought]]\u000a[[Category:Individualist anarchists]]
p2
tp3
.