(VDimiter Skordev
p1
V[[File:Dimiter-Skordev.jpg|thumb|left|Dimiter Skordev]]\u000a'''Dimiter Skordev''' ({{lang-bg|\u0414\u0438\u043c\u0438\u0442\u044a\u0440 \u0421\u043a\u043e\u0440\u0434\u0435\u0432}}) (born 1936 in [[Sofia]]) is a professor in the Department of Mathematical Logic and Applications, Faculty of Mathematics and Computer Science at the [[St. Kliment Ohridski]] [[University of Sofia]].  Chairman of the department in 1972-2000.  Doyen and pioneer of [[mathematical logic]] research in [[Bulgaria]] who developed a Bulgarian school in the theory of computability, namely the algebraic (or axiomatic) recursion theory.\u000a\u000aSkordev's field of scientific interests include [[recursion theory|computability]] and [[Computational complexity theory|complexity]] in [[mathematical analysis|analysis]], [[mathematical logic]], generalized [[recursion theory]], and theory of [[computer programs|programs]] and [[theory of computation|computation]].\u000a\u000aSkordev has more than 45 years of lecturing experience in [[calculus]], [[mathematical logic]], [[logic programming]], [[discrete mathematics]], and [[computer science]].  He authored about 90 scientific publications including two monographs, and was one of the authors of the new Bulgarian [[phonetics|phonetic]] [[keyboard layout#Bulgarian|keyboard layout]] proposed (but rejected) to become a state [[Standardization|standard]] in 2006.\u000a\u000a==References==\u000a* [http://www.fmi.uni-sofia.bg/fmi/logic/skordev/ Dimiter Skordev]\u000a* [http://www.fmi.uni-sofia.bg/fmi/logic/skordev/history.htm Historical notes on the development of mathematical logic in Sofia]\u000a\u000a{{DEFAULTSORT:Skordev, Dimiter}}\u000a[[Category:1936 births]]\u000a[[Category:Living people]]\u000a[[Category:20th-century mathematicians]]\u000a[[Category:21st-century mathematicians]]\u000a[[Category:Mathematical logicians]]\u000a[[Category:Bulgarian logicians]]\u000a[[Category:Bulgarian mathematicians]]\u000a[[Category:Bulgarian philosophers]]\u000a[[Category:People from Sofia]]\u000a\u000a\u000a{{Bulgaria-scientist-stub}}\u000a{{Europe-mathematician-stub}}
p2
tp3
.