(VDonald A. Martin
p1
V{{refimproveblp|date=December 2014}}\u000a{{Other people|Donald Martin}}\u000a[[File:Donald Martin.jpg|thumb|220px|Donald A. Martin]]\u000a'''Donald A.''' ('''Tony''') '''Martin''' (born December 24, 1940) is an American [[set theorist]] and [[philosopher of mathematics]] at [[University of California, Los Angeles|UCLA]], where he is a member of the faculty of mathematics and [[UCLA Department of Philosophy|philosophy]].\u000a\u000aAmong Martin's most notable work are the proofs of [[analytic set|analytic]] [[determinacy]] (from the existence of a [[measurable cardinal]]), [[Borel set|Borel]] [[determinacy]] (from [[ZFC]] alone), the proof (with [[John R. Steel]]) of [[projective determinacy]] (from suitable [[large cardinal]] axioms), and his work on [[Martin's axiom]]. [[Martin measure]] on [[Turing degree]]s is also named after Martin.\u000a\u000aMartin is a [[List of Harvard Junior Fellows|Harvard junior fellow]]. In 2014, he became a Fellow of the [[American Mathematical Society]].<ref>[http://www.ams.org/profession/fellows-list List of Fellows of the American Mathematical Society], retrieved 2014-12-17</ref>\u000a\u000a==See also==\u000a* [[American philosophy]]\u000a* [[List of American philosophers]]\u000a\u000a==References==\u000a{{reflist}}\u000a\u000a==External links==\u000a*[http://www.informatik.uni-trier.de/~ley/db/indices/a-tree/m/Martin:Donald_A=.html List of publications]\u000a*[http://www.logic.ucla.edu/ UCLA Logic center]\u000a\u000a{{Authority control}}\u000a\u000a{{DEFAULTSORT:Martin, Donald A.}}\u000a[[Category:1940 births]]\u000a[[Category:Living people]]\u000a[[Category:20th-century American mathematicians]]\u000a[[Category:21st-century American mathematicians]]\u000a[[Category:American logicians]]\u000a[[Category:American philosophers]]\u000a[[Category:UCLA Philosophy]]\u000a[[Category:Philosophers of mathematics]]\u000a[[Category:Set theorists]]\u000a[[Category:Guggenheim Fellows]]\u000a[[Category:Tarski lecturers]]\u000a[[Category:Fellows of the American Mathematical Society]]\u000a\u000a{{US-mathematician-stub}}
p2
tp3
.