(VFrank Schmalleger
p1
V'''Frank Schmalleger''' (born August 28, 1947) is the director of the [[Justice Research Association]]. In 1974, he received a [[Doctor of Philosophy|Ph.D.]] in [[sociology]] (with a special emphasis in [[criminology]]) from [[Ohio State University]]. He is a [[professor|professor emeritus]] at the [[University of North Carolina at Pembroke]]. He has also been affiliated with [[Webster University]] and was part of the online faculty of [[Connected Education]].\u000a\u000aSchmalleger is a member of the [[APB News Online|Advisory Board of APB News Online]]. and is founder and co-director of the [[Criminal Justice Distance Learning Consortium]]. He is also the founding editor of ''[[The Justice Professional]]'', and serves as editor for ''[[Criminal Justice in the Twenty-first Century]]'', as well as Imprint Advisor for the ''[[Criminal Justice Reference Series]]''.\u000a\u000a==Quotes==\u000a\u000a*"In order to communicate knowledge we must first catch, then hold, a person\u2019s interest\u2014be it student, colleague, or policymaker. Our writing, our speaking,  our teaching, and our research must be relevant to the problems facing people today, and they must\u2014in some way\u2014help solve those problems."\u000a*"It is my hope that the [[technology|technological]] and [[publishing]] [[revolution]]s will combine with growing social awareness to facilitate needed changes in our system; and will supplant self-serving system-perpetuated injustices with new standards of [[social equality|equity]], compassion, understanding, fairness, and justice for all."\u000a\u000a==Employment history==\u000a\u000a*1976 - 1994\u2014taught [[criminal justice]] at Pembroke State University (since 1996 the University of North Carolina at Pembroke)\u000a**1978 - 1994\u2014served as the chair of the Department of Sociology, Social Work, and Criminal Justice\u000a\u000a==See also==\u000a* [[Attempt]]\u000a* [[Burglary]]\u000a* [[Criminology]]\u000a* [[Inchoate crime]]\u000a* [[Victimology]]\u000a\u000a==Writings by Frank Schmalleger==\u000a\u000a*''[[Juvenile Delinquency]]'' (2007)\u000a*''[[Criminal Justice Today: An Introductory Text for the 21st Century]]'' (2006)\u000a*''[[Criminal Justice: A Brief Introduction]]'' (2002)\u000a*''[[Criminology Today]]'' (2002)\u000a*''[[Canadian Criminology Today]]'' (with [[Rebecca Volk|Volk]]), 2001\u000a*''[[Canadian Criminal Justice Today]]'' (with [[David MacAlister|MacAlister]], [[Paul F. McKenna|McKenna]], and [[John Winterdyk|Winterdyk]], 2001);\u000a*''[[Criminal Justice Today]]'' (2001)\u000a*''[[Corrections in the Twenty-First Century]]'' (2001)\u000a*''[[Criminal Law Today]]'' (1999)\u000a*''[[Crime and the Justice System in America: An Encyclopedia]]'' (1997)\u000a*''[[Trial of the Century: People of the State of California vs. Orenthal James Simpson]]'' (1996)\u000a*''[[Career Paths: A Guide to Jobs in Federal Law Enforcement]]'' (1994)\u000a*''[[Computers in Criminal Justice]]'' (1991)\u000a*''[[Criminal Justice Ethics]]'' (1991)\u000a*''[[Finding Criminal Justice in the Library]]'' (1991)\u000a*''[[Ethics in Criminal Justice]]'' (1990)\u000a*''[[A History of Corrections]]'' (1983)\u000a*''[[The Social Basis of Criminal Justice]]'' (1981)\u000a\u000a==External links==\u000a*[http://www.prenhall.com/schmalleger CJCENTRAL] (official)\u000a*[http://www.schmalleger.com SCHMALLEGER.COM]\u000a\u000a{{Authority control}}\u000a{{DEFAULTSORT:Schmalleger, Frank}}\u000a[[Category:Ohio State University alumni]]\u000a[[Category:Living people]]\u000a[[Category:American sociologists]]\u000a[[Category:American criminologists]]\u000a[[Category:1947 births]]
p2
tp3
.