(VFujiwara Seika
p1
V{{refimprove|date=March 2014}}\u000a[[Image:Fujiwara Seika.jpg|thumb|300px|Fujiwara Seika from Japanese book\u300e\u5148\u54f2\u50cf\u4f1d\u300f]]\u000a{{Japanese name|Fujiwara}}\u000a\u000a{{nihongo|'''Fujiwara Seika'''|\u85e4\u539f \u60fa\u7aa9|extra=February 8, 1561 &ndash; October 19, 1619}} was a [[Japan]]ese [[Neo-Confucianism|neo-Confucian]] philosopher in the [[Edo period]].<ref>[[Richard Ponsonby-Fane|Ponsonby-Fane, Richard]]. (1962). ''Sovereign and Subject,'' pp. 246-248.</ref>\u000a\u000aHis most well-known student was [[Hayashi Razan]] (1583\u20131657).<ref>Ponsonby-Fane, p. 248.</ref>\u000a\u000a== See also ==\u000a*[[Neo-Confucianism in Japan]]\u000a\u000a==References==\u000a{{reflist}}\u000a\u000a{{Authority control}}\u000a\u000a{{DEFAULTSORT:Seika, Fujiwara}}\u000a[[Category:1561 births]]\u000a[[Category:1619 deaths]]\u000a[[Category:Japanese Confucianists]]\u000a[[Category:Japanese philosophers]]\u000a[[Category:Japanese writers of the Edo period]]\u000a[[Category:Rinzai Buddhists]]\u000a\u000a\u000a{{Japan-philosopher-stub}}
p2
tp3
.