(VGerald Dworkin
p1
V'''Gerald Dworkin''' (born 1937) is a professor of moral, political and legal philosophy.  He is Distinguished Professor of Philosophy Emeritus at the [[University of California]], Davis. In 2016\u201317 he is the Brady Distinguished Visiting Professor of Ethics and Civic Life at Northwestern University.\u000a\u000a==Early life and education==\u000aDworkin earned his [[Ph.D.]] at the [[University of California, Berkeley]] in 1966.<ref>{{cite web|url=http://philosophy.ucdavis.edu/people/gerald|title=Gerald B. Dworkin|publisher=University of California, Davis}}</ref>\u000a\u000a==Career==\u000aDworkin has also taught at [[Harvard]], [[MIT]], and the [[University of Illinois]], [[Chicago]]. He has been a visiting Fellow of [[All Souls College]] (Oxford), the [[Australian National University]], and the [[Hastings Center]].  He was the Centennial Visiting Professor at the [[London School of Economics]]. In 2006, he was a Distinguished Visitor at the  Chinese University of Hong Kong where he gave a series of lectures on [[paternalism]].\u000a\u000aDworkin's main areas of research include the nature and justification of [[autonomy]],<ref>G. Dworkin, The Theory and Practice of Autonomy, Cambridge University Press, 1988</ref> paternalism in the criminal law,<ref>G. Dworkin, "Paternalism", The Monist, 1972</ref> and the issue of which acts may legitimately be criminalized by the state.<ref>Morality, Harm, and the Law, Westview Press, 1984</ref>   Most recently he has been working on the ethics of lying and deception.  An article in the New York Times "Are these 10 Lies Justified?"  which listed lies he thought permissible and asked for readers to respond if they disagreed received more than 10,000 responses.\u000a\u000aOne of Dworkin's books is a defense of [[Assisted suicide|physician-assisted suicide]].<ref>Dworkin, Frey and Bok, Euthanasia and Physician-assisted Suicide: For and Against, Cambridge University Press, 1998.</ref> In it, he argues that doctors who approve of withdrawing patients from life support at their request, or administering pain-relief medication that is foreseen to kill the patient, or who approve of terminal sedation, are inconsistent if they condemn physician-assisted suicide.{{citation needed|date=November 2014}} This book has been published in [[Spanish language|Spanish]]- and [[Korean language|Korean]]-language editions.{{citation needed|date=November 2014}}\u000a\u000aHe has published an e-book, Philosophy: A Commonplace Book, which is a collection of aphorisms, jokes, witty comments on philosophy, and other interesting quotations. \u000a\u000a==References==\u000a{{Reflist}}\u000a\u000a{{Authority control}}\u000a{{DEFAULTSORT:Dworkin, Gerald}}\u000a[[Category:1937 births]]\u000a[[Category:University of California, Davis faculty]]\u000a[[Category:Harvard University faculty]]\u000a[[Category:Massachusetts Institute of Technology faculty]]\u000a[[Category:University of Illinois at Chicago faculty]]\u000a[[Category:Living people]]\u000a\u000a\u000a{{US-philosopher-stub}}
p2
tp3
.