(VGiovanni Battista Scaramelli
p1
V{{refimprove|date=May 2014}}\u000a'''Giovanni Battista Scaramelli''' (24 November 1687 \u2013 11 January 1752) was an Italian Jesuit, [[ethicist]] and ascetical writer.\u000a\u000a==Biography==\u000aHe was born at [[Rome]] and died at [[Macerata]] in 1752. He entered the [[Society of Jesus]] on 21 September 1706. He devoted himself to preaching and the ministry for fifteen years.\u000a\u000a==Legacy==\u000aAccording to Dominican theologian Jordan Aumann, Scaramelli was the first to use the term "ascetism" in contradistinction to the older word mystical after the term had been introduced by the Franciscan friar named Dobrosielski into the Latin usage of western theology in 1655. Scaramelli's work on ethics in his ''Directorium Asceticum'' has stood the test of time and integrates well with the evidence from modern psychology.<ref>[http://www.newadvent.org/cathen/13514a.htm "Giovanni Battista Scaramelli"] ''Catholic Encyclopedia''</ref>\u000a\u000a==Writings==\u000a*''Vita di Suor Maria Crocifissa Satellico Monaca francescana nel monastero di monte Nuovo'' (1750)\u000a*''Discernimento de' spiriti per il retto regolamento delle azione proprie ed altrui. Operetta utile specialemente ai Direttori delle anime'' (1753) (English edition ''Directorium Asceticum'')\u000a*''Direttorio ascetico in cui s'insegna il modo di condurre l'Anime per vie ordinarie della grazia alla perfezione christiana, indirizzato ai direttori della Anime'' (1752)\u000a*''Il direttorio mistico indirizzato a' direttori di quelle anime che Iddio conduce per la via della contemplazione'' (1754)\u000a*''Dottrina di [[S. Giovanni della Croce]]'' (1860)\u000a\u000a==His books online==\u000a[https://archive.org/search.php?query=scaramelli%20AND%20mediatype%3Atexts works of Scaramelli at archive.org]\u000a\u000a==Notes==\u000a{{reflist}}\u000a\u000a==References==\u000a*{{CathEncy|title=Giovanni Battista Scaramelli|url=http://www.newadvent.org/cathen/13514a.htm}}\u000a\u000a{{Catholic|wstitle=Giovanni Battista Scaramelli}}\u000a\u000a{{Authority control}}\u000a\u000a{{DEFAULTSORT:Scaramelli, Giovanni Battista}}\u000a[[Category:1687 births]]\u000a[[Category:1752 deaths]]\u000a[[Category:Writers from Rome]]\u000a[[Category:Italian male writers]]\u000a[[Category:18th-century philosophers]]\u000a[[Category:Roman Catholic philosophers]]\u000a[[Category:Moral philosophers]]\u000a[[Category:Italian Roman Catholic theologians]]\u000a[[Category:Italian Jesuits]]
p2
tp3
.