(VIgor Pribac
p1
V{{no footnotes|date=January 2013}}\u000a[[File:Accatti.jpg|thumb|230px|right|Igor Pribac in [[Ljubljana]], together with historians [[Marta Verginella]] (left) and [[Luisa Accati]] (centre).]]\u000a\u000a'''Igor Pribac''' (born 1958) is a [[Slovenia]]n [[translator]].\u000a\u000aBorn in [[Koper]] in the [[Slovenian Littoral]], then part of [[former Yugoslavia]], where he attended high school. He studied philosophy and sociology at the [[University of Ljubljana]]. He obtained a MA with a thesis on [[Spinoza]]'s criticism of [[Descartes]] under the supervision of the philosopher [[Bo\u017eidar Debenjak]]. In 1998, he obtained a PhD with a thesis on natural law in [[Hobbes]] and [[Spinoza]]. Since 1985, he has taught at the Faculty of Arts of the University of Ljubljana.\u000a\u000aHe has translated several philosophical texts from English and Italian, including [[Will Kymlicka]], [[Paolo Virno]], [[Cesare Beccaria]], and [[Thomas Hobbes]].\u000a\u000aHe has also written on a variety of populist subjects, including [[psychology]] and [[psychoanalysis]], [[natural law]], early modern [[political theory]], and the notion of [[post-modernism]]. He has published several very important reflections on contemporary issues, such as [[animal rights]], [[television]], or the changing role of [[marriage]] in post-modern societies, from a philosophical perspective. He has been a supporter of [[euthanasia]] and of the [[basic income]] and many other [[populist]] causes.\u000a\u000a== Major works ==\u000a*''Gledanje televizije'' ('Watching Television', Ljubljana: \u0160OU, 1993)\u000a*''O\u010detov dele\u017e'' ('The Share of the Father', Ljubljana: \u010cKZ, 1993)\u000a*''Prava poroka? : 12 razmi\u0161ljanj o zakonski zvezi'', with [[Zdravko Kobe]] ('True Marriage: 12 Reflections on Matrimony', Ljubljana: Krtina, 2006)\u000a\u000a== References ==\u000a*[http://www.ff.uni-lj.si/oddelki/filo/osebje/pribac.htm Short bibliography with photo] {{sl icon}}\u000a\u000a== External links ==\u000a*[http://www.dnevnik.si/tiskane_izdaje/objektiv/1042248019 Interview with the daily newspaper Dnevnik] {{sl icon}}\u000a\u000a{{Koper |state=collapsed}}\u000a\u000a{{DEFAULTSORT:Pribac, Igor}}\u000a[[Category:1958 births]]\u000a[[Category:Living people]]\u000a[[Category:People from Koper]]\u000a[[Category:Slovenian philosophers]]\u000a[[Category:Slovenian translators]]\u000a[[Category:Italian\u2013Slovene translators]]\u000a[[Category:English\u2013Slovene translators]]\u000a[[Category:University of Ljubljana alumni]]\u000a[[Category:University of Ljubljana faculty]]\u000a[[Category:20th-century philosophers]]\u000a[[Category:20th-century translators]]
p2
tp3
.