(VInayatullah Khan Mashriqi
p1
V{{EngvarB|date=August 2014}}\u000a{{Use dmy dates|date=August 2014}}\u000a{{multiple issues|\u000a{{COI|date=January 2012}}\u000a{{refimprove|date=November 2013}}\u000a{{copy edit|date=December 2015}}\u000a}}\u000a\u000a{{Infobox person\u000a|name=Inayatullah Khan Mashriqi\u000a|birth_date={{birth date|df=yes|1888|08|25}}\u000a|birth_place=[[Amritsar]], [[Punjab Province (British India)|Punjab]], British India\u000a|death_date={{death date and age|df=yes|1963|08|27|1888|8|25}}\u000a|death_place=[[Lahore]], [[Punjab, Pakistan]]\u000a|alma_mater=[[University of the Punjab]]<br>[[Christ's College, Cambridge]]\u000a|image=\u000a|caption=\u000a|other_names=Allama Mashriqi\u000a|movement=[[Indian independence movement]]<br>[[Pakistan Movement]]\u000a|office=Under Secretary, [[British India]]\u000a|organization=[[Khaksars|Khaksar movement]]\u000a|monuments=\u000a|awards=\u000a|religion=Islam\u000a|influences=\u000a|influenced=\u000a|footnotes=\u000a}}\u000a\u000a'''Inayatullah Khan Mashriqi''', also known as '''[[Allamah|Allama]] Mashriqi''', (25 August 1888 \u2013 27 August 1963) was a [[Pakistani people|Pakistani]] mathematician, logician, political theorist, Islamic scholar and the founder of the [[Khaksars|Khaksar movement]].\u000a\u000aIn 1930 founded the Khaksar Movement, aiming to advance the condition of the masses irrespective of any [[faith]], [[sect]], or religion.<ref name="shabbir2">S. Shabbir Hussain, Al-Mashriqi: The Disowned Genius, Lahore, [[Jang Group of Newspapers|Jang Publishers]], 1991</ref> \u000a\u000a==Education==\u000aMashriqi had a passion for mathematics from his childhood.<ref name="shabbir2" /> He completed his master's degree in Mathematics from the [[University of the Punjab]] at the age of 19 and broke all previous records. In October 1907 he matriculated at [[Christ's College, Cambridge]], England, to read for the [[Cambridge Mathematical Tripos|mathematics tripos]]. He was awarded a college foundation scholarship in May 1908.<ref>''The Times'', 23 June 1908, page 12.</ref> In June 1909 he was awarded [[British undergraduate degree classification|first class honours]] in Mathematics Part I, being placed joint 27th out of 31 on the list of [[Wrangler (University of Cambridge)|wranglers]].<ref>''The Times'', 16 June 1909, page 9.</ref> For the next two years, he read for the [[Languages of Asia|oriental languages]] tripos in parallel to the natural sciences tripos, gaining first class honours in the former and third class in the latter.<ref>''The Times'',17 June 1911, page 6.</ref><ref>M. Aslam Malik,''Allama Inayatullah Mashraqi'', page 3.</ref>\u000a\u000aAfter three years' residence at [[Cambridge]] he had qualified for his Bachelor of Arts degree, which he took in 1910. In 1912 he completed a fourth tripos in mechanical sciences, and was placed in the second class. Following the year, Mashriqi was conferred with DPhil in mathematics receiving a gold medal in his doctoral graduation ceremony.<ref>''The Times'', 13 June 1912, page 7</ref> He left Cambridge and returned to India in December 1912.<ref>M. Aslam Malik,''Allama Inayatullah Mashraqi'', page 4.</ref> During his stay in Cambridge his religious and scientific conviction was inspired by the works and concepts of the professor [[Sir James Jeans]].<ref name="shabbir">S. Shabbir Hussain (ed.), God, Man, and Universe, Akhuwat Publications, Rawalpindi, 1980</ref>{{page needed|date=February 2012}}\u000a\u000a==Career==\u000aOn his return to India, Mashriqi was offered the premiership of [[Alwar]], a [[Princely states|princely state]], by the Raja. He declined owing to his interest in education. At the age of 25 he was appointed Vice Principal of [[Islamia College (Peshawar)|Islamia College]], [[Peshawar]], by Chief Commissioner [[Sir George Roos-Keppel]]. He was made Principal of the same college in 1917. In Oct 1917 he was appointed Under Secretary to the Government of India in the Education Department in succession to Sir George Anderson (1876\u20131943).<ref>Hira Lal Seth, ''The Khaksar Movement Under Search Light And the Life Story of Its Leader Allama Mashriqi'' (Hero Publications, 1946), p 16</ref> He became headmaster of the High School, Peshawar on 21 October 1919.\u000a\u000aIn 1930 he was passed over for a promotion in the government service, following which he went on medical leave. In 1932 he resigned, taking his pension, and settled down in [[Ichhra]], Lahore.<ref>Shan Muhammed, Khaksar Movement in India, Pub. Meenakshi Prakashan, Meerut, 1973</ref>{{page needed|date=February 2012}}\u000a\u000a===Nobel nomination===\u000aIn 1924, at the age of 36, Mashriqi completed the first volume of his book, ''Tazkirah''. It is a commentary on the ''Qur'an'' in the light of science. It was nominated for the Nobel Prize in 1925,<ref>M.Aslam Malik,''Allama Inayatullah Mashraqi''</ref>{{full|date=November 2012}} subject to the condition it was translated into one of the [[European languages]]. Mashriqi, however, declined the suggestion of translation.<ref>[http://www.paktribune.com/news/print.php?id=149500 Allama Mashriqi \u2013 a great genius], Pak Tribune, 11 July 2006. (accessed on 30 November 2006)</ref>\u000a\u000a===Fellowships===\u000aMashriqi's fellowships included:<ref name="shabbir"/>{{page needed|date=February 2012}}\u000a\u000a*Fellow of the [[Royal Society of Arts]], 1923\u000a*Fellow of the Geographical Society (F.G.S), Paris\u000a*Fellow of Society of Arts (F.S.A), Paris\u000a*Member of the Board at [[Delhi University]]\u000a*President of the Mathematical Society, [[Islamia College (Peshawar)|Islamia College]], [[Peshawar]]\u000a*Member of the International Congress of Orientalists ([[Leiden]]), 1930\u000a*President of the All World's Faiths Conference, 1937\u000a\u000a==Mashriqi's philosophy==\u000a\u000aHe declared that the science of religions was essentially the science of collective evolution of mankind; all prophets came to unite mankind, not to disrupt it; the basic law of all faiths is the law of unification and consolidation of the entire humanity.<ref name="shabbir"/>{{page needed|date=February 2012}} According to Markus Daeschel, the philosophical ruminations of Mashriqi offer an opportunity to re-evaluate the meaning of colonial modernity and notion of post-colonial [[nation-building]] in modern times.<ref>Markus Daeschel, [http://journals.cambridge.org/action/displayAbstract?fromPage=online&aid=500148 Scientism and its discontents: The Indo-Muslim "Fascism" of Inayatullah Khan Al-Mashriqi], ''Modern Intellectual History'', 3: pp. 443\u2013472, [[Cambridge University Press]]. 2006</ref>\u000a\u000a==Political life==\u000aMashriqi is often portrayed as a controversial figure, a religious activist, a revolutionary, and an anarchist; while at the same time he is described as a visionary, a reformer, a leader, and a scientist-philosopher who was born ahead of his time.<ref name="shabbir2" />\u000a\u000aAfter Mashriqi resigned from government service, he laid the foundation of the Khaksar Tehrik (also known as Khaksar Movement) in 1930.<ref>Khaksar Tehrik Ki Jiddo Juhad Volume 1. Author Khaksar Sher Zaman</ref>{{full|date=November 2012}}\u000a[[File:Al-Islah.jpg|thumb|Al-Islah ([[Khaksar Tehrik]] weekly)]]\u000a\u000a==Imprisonments and allegations==\u000a\u000aOn 20 July 1943, an assassination attempt was made on [[Muhammad Ali Jinnah]] by Rafiq Sabir who was assumed to be a Khaksar worker.<ref>Jinnah of Pakistan, [http://www.humsafar.info/1943.htm Calendar of events, 1943]. Accessed on 2 March 2007</ref> The attack was deplored by Mashriqi, who denied any involvement. Later, Justice Blagden of [[Bombay High Court]], in his ruling on 4 November 1943 dismissed any association of Khaksars.<ref>Akbar A. Peerbhoy, Jinnah Faces An Assassin, Bombay: Thacker & Co., 1943</ref>\u000a\u000aIn Pakistan, Mashriqi was imprisoned at least five times: in 1950 prior to election; in 1958 for alleged complicity in the murder of republican leader [[Khan Abdul Jabbar Khan]]; and, in 1962 for suspicion on attempt to overthrow [[Ayub Khan (Field Marshal)|President Ayub's]] government. However, none of the charges were proved, and he was acquitted in each case.<ref name="shabbir"/>{{page needed|date=February 2012}}\u000a\u000aIn 1957 Mashriqi allegedly led 300,000 of his followers to the borders of [[Kashmir]], intending, it is said, to launch a fight for its liberation. However, the [[Government of Pakistan|Pakistan government]] persuaded the group to withdraw and the organisation was later disbanded.<ref>Obituary, ''The Times'', 29 August 1963</ref>\u000a\u000a==Death==\u000aMashriqi died on 27 August 1963.\u000a\u000a==Mashriqi's works==\u000aMashriqi's prominent works include:\u000a\u000a*''Armughan-i-Hakeem'', a poetical work\u000a*''Dahulbab'', a poetical work\u000a*''Isha\u2019arat'', the "Bible" of the Khaksar movement\u000a*''Khitab-e-Misr'' (The Egypt Address), based on his 1925 speech in [[Cairo]] as a delegate to the ''Motmar-e-Khilafat''\u000a*''Maulvi Ka Ghalat Mazhab''\u000a*''Tazkirah'' Volume I, 1924, discussions on conflicts between religions, between religion and science, and the need to resolve these conflicts\u000a*''Tazkirah'' Volume II. Posthumously published in 1964\u000a*''Tazkirah'' Volume III.\u000a\u000a===Edited works===\u000a*God, man, and universe: as conceived by a mathematician (works of Inayatullah Khan el-Mashriqi), Akhuwat Publications, Rawalpindi, 1980 (edited by Syed Shabbir Hussain).\u000a\u000a==See also==\u000a*[[Pakistan Movement]]\u000a*[[Teilhard de Chardin]]\u000a*[[Karl Marx]]\u000a\u000a==References==\u000a{{Reflist|2}}\u000a\u000a{{Authority control}}\u000a\u000a{{DEFAULTSORT:Mashriqi, Allama}}\u000a[[Category:People from Lahore]]\u000a[[Category:Pakistani scholars]]\u000a[[Category:Islamic studies scholars]]\u000a[[Category:Muslim reformers]]\u000a[[Category:Forman Christian College alumni]]\u000a[[Category:1888 births]]\u000a[[Category:1963 deaths]]\u000a[[Category:People from Amritsar]]\u000a[[Category:Pakistani logicians]]\u000a[[Category:Pakistani Sunni Muslims]]\u000a[[Category:Alumni of Christ's College, Cambridge]]\u000a[[Category:University of the Punjab alumni]]\u000a[[Category:Pakistani mathematicians]]\u000a[[Category:Islamia College University faculty]]\u000a[[Category:Indian revolutionaries]]\u000a[[Category:Indian prisoners and detainees]]\u000a[[Category:20th-century philosophers]]\u000a[[Category:World War II political leaders]]\u000a[[Category:Anti-poverty advocates]]\u000a[[Category:Punjabi people]]\u000a\u000a[[Category:Indian expatriates in the United Kingdom]]\u000a[[Category:Indian humanitarians]]\u000a[[Category:Indian independence activists]]\u000a[[Category:20th-century Indian philosophers]]\u000a[[Category:Pakistani politicians]]\u000a[[Category:Pakistani humanitarians]]\u000a[[Category:Pakistan Movement]]\u000a[[Category:Pakistani philosophers]]\u000a[[Category:Indian logicians]]\u000a[[Category:Indian people of World War II]]
p2
tp3
.