(VJack Copeland
p1
V{{Use British English|date=May 2012}}\u000a{{Use dmy dates|date=May 2012}}\u000a{{Infobox scientist\u000a| image             = Jack Copeland IMG 2109.jpg\u000a| image_size        = \u000a| caption           = \u000a|birth_name              = Brian Jack Copeland\u000a| birth_date        = {{Birth year and age|1950|}}\u000a| birth_place       = United Kingdom\u000a| death_date        = \u000a| death_place       = \u000a| nationality       = British\u000a| fields            = Philosophy, [[logic]]\u000a| workplaces        = [[University of Plymouth]]<br />[[University of Canterbury]]\u000a| alma_mater        = [[Corpus Christi College, Oxford]]\u000a| residence         = [[Christchurch]], New Zealand\u000a| doctoral_advisor  = [[Dana Scott]]<ref>{{MathGenealogy|93763}}</ref>\u000a| doctoral_students = \u000a| known_for         = Study of [[Alan Turing]].\u000a| awards            = \u000a}}\u000a\u000a'''Brian Jack Copeland''' (born 1950) is Professor of Philosophy at the [[University of Canterbury]], [[Christchurch]], [[New Zealand]], and author of books on computing pioneer [[Alan Turing]].\u000a\u000aHis education includes a [[BPhil]] and a [[DPhil]] from the University of Oxford in philosophy, where he undertook research on [[modal logic|modal]] and [[non-classical logic]] under the supervision of [[Dana Scott]].<ref>{{cite web | url=http://genealogy.math.ndsu.nodak.edu/id.php?id=93763  | title=John Copeland | publisher=[[North Dakota State University]] |work=[[Mathematics Genealogy Project]] | accessdate=26 December 2011}}</ref>\u000a\u000aJack Copeland is the Director of the Turing Archive for the History of Computing,<ref>[http://www.alanturing.net/ Turing Archive for the History of Computing].</ref> an extensive online archive on the computing pioneer [[Alan Turing]]. He has also written and edited books on Turing.  He is one of the people responsible for identifying the concept of [[hypercomputation]] and machines more capable than [[Turing machine]]s.\u000a\u000aCopeland has held visiting professorships at the [[University of Sydney]], Australia (1997, 2002), the [[University of Aarhus]], Denmark (1999), the [[University of Melbourne]], Australia (2002, 2003), and the [[University of Portsmouth]], United Kingdom (1997\u20132005). In 2000, he was a Senior Fellow in the [[Dibner Institute for the History of Science and Technology]]<ref>[http://dibinst.mit.edu/ Dibner Institute for the History of Science and Technology], [[Massachusetts Institute of Technology]], USA.</ref> at the [[Massachusetts Institute of Technology]], United States.\u000a\u000aHe is also President of the US Society for Machines and Mentality<ref>[http://www.cs.hamilton.edu/~sfmm/ Society for Machines and Mentality], USA.</ref> and a member of the UK [[Bletchley Park]] Trust Heritage Advisory Panel. He is the founding editor of ''[[The Rutherford Journal]]'', established in 2005.\u000a\u000aCopeland was awarded Lecturer of the Year 2010 by the University of Canterbury's student union.<ref>[UCSA.http://canta.co.nz/media/uploads/2011_03/Canta_22.pdf/ ]</ref>\u000a\u000a== Books ==\u000a* ''[[Artificial Intelligence]]: A Philosophical Introduction'' ([[Blackwell Publishing|Blackwell]], 1993, 2nd edition due) ISBN 0-631-18385-X\u000a* ''Logic and Reality Essays on the Legacy of [[Arthur Prior]]'' ([[Oxford University Press]], 1996) ISBN 0-19-824060-0\u000a* ''The Essential Turing'' (Oxford University Press, 2004) ISBN 0-19-825080-0\u000a* ''Alan Turing\u2019s [[Automatic Computing Engine]]: The Master Codebreaker's Struggle to Build the Modern Computer'' (Oxford University Press, 2005) ISBN 0-19-856593-3\u000a* ''[[Colossus computer|Colossus]]: The Secrets of Bletchley Park's Codebreaking Computers'' (Oxford University Press, 2006) ISBN 0-19-284055-X\u000a* ''Turing: Pioneer of the Information Age'' (Oxford University Press, 2014: Paperback edition) ISBN 978-0198719182\u000a\u000a== References ==\u000a{{reflist|colwidth=30em}}\u000a\u000a== External links ==\u000a* [http://www.arts.canterbury.ac.nz/philosophy/people/copeland.shtml Home page]\u000a* [http://www.alanturing.net/turing_archive AlanTuring.net]\u000a* [http://www.rutherfordjournal.org/article040101.html Alan Turing: Father of the Modern Computer]\u000a* {{AcademicSearch|325889}} \u000a* {{DBLP|id=Copeland:B=_Jack}}\u000a\u000a{{Authority control}}\u000a\u000a{{DEFAULTSORT:Copeland, Jack}}\u000a[[Category:1950 births]]\u000a[[Category:Living people]]\u000a[[Category:Alumni of Corpus Christi College, Oxford]]\u000a[[Category:English philosophers]]\u000a[[Category:New Zealand philosophers]]\u000a[[Category:Historians of science]]\u000a[[Category:Historians of mathematics]]\u000a[[Category:Academics of the University of Portsmouth]]\u000a[[Category:University of Canterbury faculty]]\u000a[[Category:Academic journal editors]]\u000a[[Category:English male writers]]
p2
tp3
.