(VJanet Coleman
p1
V'''Janet Coleman''' [[Royal Historical Society|FRHistS]] (born 1945, [[New York]]<ref>[http://errol.oclc.org/laf/n81-52111.html Library of Congress Name Authority File]</ref>) is a [[United Kingdom|British]] academic and historian of [[political theory]].\u000a\u000aShe is currently the Professor of Ancient and Medieval Political Thought at the [[London School of Economics]]. She was the first woman to receive a chair in the LSE government department.<ref name="Dispatch">Interview with Janet Coleman, ''Dispatch Box'', no. 4 (March 2008)</ref> Her research interests include ancient Greek and Roman [[political thought]], medieval philosophy, and theories of citizenship and the state.\u000a\u000aColeman studied at [[Sorbonne|L'Ecole Pratique des Hautes Etudes]] in Paris and received her [[Doctor of Philosophy|Ph.D.]] degree from [[Yale University]]. She has held teaching appointments in politics at [[Exeter University]] and on the History Faculty of the [[University of Cambridge]]. \u000a\u000aIn 1980 she co-founded (with [[Iain Hampsher-Monk]]) the [[academic journal]] ''[[History of Political Thought (journal)|History of Political Thought]]'', which she continues to co-edit. She is a Fellow of the [[Royal Historical Society]].\u000a\u000aColeman has taught at LSE since 1989, where from 2001 to 2004 she held a  [[Leverhulme Trust|Leverhulme Major Research Fellowship]]. Her lectures in the introductory government course at the LSE are known for her attempts to "'be' political philosophers from the ancient Greeks to Machiavelli."<ref name="Dispatch">Interview with Janet Coleman, ''Dispatch Box'', no. 4 (March 2008)</ref> Coleman plans to retire in 2010.<ref name="Dispatch">Interview with Janet Coleman, ''Dispatch Box'', no. 4 (March 2008)</ref> She has been offered a Global Distinguished Professorship at [[New York University]].\u000a\u000aColeman resides in [[Cambridge]].\u000a\u000a== Select bibliography ==\u000a\u000a*''English Literature in History 1350-1400: Medieval Readers and Writers'', 1981\u000a*''Against the State: Studies in Sedition and Rebellion'', 1990\u000a*''Ancient and Medieval Memories: Studies in the Reconstruction of the Past'', 1992\u000a*''The Individual in Political Theory and Practice'', 1996\u000a*''Scholastics, Enlightenments and Philosophic Radicals: Essays in Honour of J. H. Burns'' (ed.), 1999 \u000a*''A History of Political Thought, from Ancient Greece to Early Christianity'', 2000\u000a*''A History of Political Thought, from the Middle Ages to the Renaissance'', 2000\u000a\u000a==References==\u000a{{reflist}}\u000a\u000a== External links ==\u000a*[http://www.lse.ac.uk/people/j.coleman@lse.ac.uk/ Coleman's LSE profile]\u000a*{{worldcat id|lccn-n81-52111}}\u000a\u000a{{Authority control}}\u000a{{DEFAULTSORT:Coleman, Janet}}\u000a[[Category:1945 births]]\u000a[[Category:Living people]]\u000a[[Category:Academics of the London School of Economics]]\u000a[[Category:British historians]]\u000a[[Category:British political philosophers]]\u000a[[Category:Fellows of the Royal Historical Society]]\u000a[[Category:British women historians]]
p2
tp3
.