(VJeffrey Friedman (political scientist)
p1
V{{Infobox scientist\u000a| name = Jeffrey Friedman\u000a| image =\u000a| image_size =\u000a| caption =\u000a| birth_date = {{birth date and age |1959|3|25|mf=y}}\u000a| birth_place =\u000a| death_date =\u000a| death_place =\u000a| residence = [[United States]]\u000a| citizenship =\u000a| nationality =\u000a| field = Political science, political theory\u000a| work_institution = \u000a| alma_mater =\u000a| doctoral_advisor =\u000a| doctoral_students =\u000a| known_for = ''[[Critical Review (scholarly journal)|Critical Review]]''\u000a| prizes =\u000a| religion =\u000a| footnotes =\u000a}}\u000a\u000a'''Jeffrey Friedman''' (born March 25, 1959) is a political scientist. He is the founder and editor of [[Critical Review (scholarly journal)|''Critical Review: A Journal of Politics and Society'']].\u000a\u000aFriedman majored in history and philosophy at [[Brown University]]. He received an MA in history at the [[University of California, Berkeley]], in 1985 and a Ph.D. in political science from [[Yale]] in 2002. He taught in the Government department at [[Dartmouth College]] in 1998, the Social Studies program at [[Harvard]] from 1998 to 2000, and the Political Science department at [[Barnard College]], [[Columbia University]] from 2001 to 2006.\u000a\u000aFriedman is a visiting scholar in the Government Department of the [[University of Texas at Austin]], and the Max Weber Fellow of the Institute for the Advancement of the Social Sciences at [[Boston University]].\u000a\u000a==Books==\u000a* [http://yalepress.yale.edu/yupbooks/book.asp?isbn=0300068212 The Rational-Choice Controversy: Economic Models of Politics Reconsidered] (ed.) Yale University Press (1996).\u000a* [http://www.upenn.edu/pennpress/book/14790.html ''What Caused the Financial Crisis.''] (ed.) University of Pennsylvania Press (2010).\u000a* [http://www.upenn.edu/pennpress/book/14917.html ''Engineering the Financial Crisis: Systemic Risk and the Failure of Regulation''] w/ Wladimir Kraus - University of Pennsylvania Press (2011).\u000a\u000a==Articles==\u000a* [http://www.criticalreview.com/crf/jf/2%202_3%20locke.pdf "Locke as Politician."] ''Critical Review'' 2(2-3): 64-101 (1988).\u000a* [http://www.criticalreview.com/crf/jf/3%203_4%20fukuyama1.pdf "The New Consensus: I. The Fukuyama Thesis"] Critical Review 3(3). 1989.\u000a* [http://www.criticalreview.com/crf/jf/4%204_fukuyama2.pdf "The New Consensus: II. The Democratic Welfare State"] Critical Review 4(4). 1990.\u000a* [http://www.criticalreview.com/crf/jf/11%203%20libertarianism.pdf "What's Wrong with Libertarianism."] ''Critical Review'' 11(3): 407-67 (1997).\u000a* [http://www.criticalreview.com/crf/jf/12_4%20pub%20ig.pdf "Public Ignorance and Democratic Theory."] ''Critical Review'' 12(4): 397-411 (1998).\u000a* [http://www.criticalreview.com/crf/jf/14%201%20bureacracy.pdf "After Democracy, Bureaucracy?"] ''Critical Review'' 14(1): 469-79 (2000).\u000a* [http://www.criticalreview.com/crf/jf/15%203_4%20bringing%20media%20back.pdf "Public Opinion: Bringing the Media Back In."] ''Critical Review'' 15(3-4): 239-58 (2003).\u000a* [http://the-dissident.com/reality%20check.shtml "Theory Gets a Reality Check: Power, Money and a Little Bit about Love."] ''The Dissident'', no. 2.\u000a* [http://www.criticalreview.com/crf/pdfs/ignorance_article.pdf "Popper, Weber, and Hayek: The Epistemology and Politics of Ignorance."] ''Critical Review'' 17(1-2): i-lvii (2005).\u000a* [http://www.criticalreview.com/crf/pdfs/friedman_intro.pdf "The Bias Issue."] ''Critical Review'' 17(3-4): 221-236 (2005).\u000a* [http://www.criticalreview.com/crf/jf/18%201_3%20Converse.pdf "Public Competence In Normative and Positive Theory: Neglected Implications of "The Nature of Belief Systems in Mass Publics."] ''Critical Review'' 18(1-3): i-xliii (2006).\u000a* [http://criticalreview.com/crf/jf/19_2_3_tulis.pdf "'A Weapon in the Hands of the People': ''The Rhetorical Presidency'' in Historical and Conceptual Context."] ''Critical Review'' 19(2-3): 197-240 (2007).\u000a* [http://criticalreview.com/crf/jf/20_3_caplan.pdf "The Irrelevance of Economic Theory to Understanding Economic Ignorance"] (with Stephen Earl Bennett). ''Critical Review'' 20(3): 195-258 (2008).\u000a* [http://criticalreview.com/crf/pdfs/Friedman_intro21_23.pdf "A Crisis of Politics, Not Economics: Complexity, Ignorance, and Policy Failure."] ''Critical Review'' 21(2-3): 127-83 (2009).\u000a* [http://www.criticalreview.com/crf/jf/Evans%20&%20Friedman.pdf "'Search' vs. 'Browse': A Theory of Error Grounded In Radical (Not Rational) Ignorance."] ''Critical Review'' 23(1-2): 73-104 (2011).\u000a* [http://www.criticalreview.com/crf/jf/Friedman%20&%20Friedman.pdf "Capitalism and the Jewish Intellectuals."] ''Critical Review'' 23(1-2): 169-94 (2011).\u000a* [http://www.criticalreview.com/crf/jf/Friedman_24_2.pdf "Motivated Skepticism or Inevitable Conviction? Dogmatism and the Study of Politics."] Critical Review 24(2). 2012.\u000a\u000a==External links==\u000a{{wikiquote}}\u000a* [http://www.criticalreview.com/crf/jeffreyfriedman.html Friedman's page at Critical Review]\u000a* [http://causesofthecrisis.blogspot.com/ Causes of the Financial Crisis blog]\u000a* {{Goodreads author|name=Jeffrey Friedman}}\u000a\u000a{{Authority control}}\u000a\u000a{{DEFAULTSORT:Friedman, Jeffrey}}\u000a[[Category:Living people]]\u000a[[Category:American political scientists]]\u000a[[Category:Libertarian theorists]]\u000a[[Category:Brown University alumni]]\u000a[[Category:Yale University alumni]]\u000a[[Category:University of California, Berkeley alumni]]\u000a[[Category:Harvard University faculty]]\u000a[[Category:1959 births]]
p2
tp3
.