(VJenny Teichman
p1
V'''Jenny Teichman''' is an Australian/British [[philosopher]], writing mostly on [[ethics]]. She was born in [[Melbourne]], [[Australia]] in 1930 and has taught mostly at [[Murray Edwards College, Cambridge]], formerly known as New Hall, where she is now an Emeritus Fellow.<ref name="ref1">[http://www.infidels.org/library/modern/finngeir_hiorth/teichman.html Book Review]</ref> She taught for shorter periods in Australia, Canada and the USA.\u000a\u000a==Bibliography==\u000a{{Expand list|date=July 2016}}\u000a===Books===\u000a*{{cite book |author=Teichman, Jenny |authorlink= |authormask= |title=The mind and the soul : an introduction to the philosophy of mind |location=London |publisher=Routledge & Kegan Paul |year=1974 |<!--isbn=0710077319-->}}\u000a* ''Illegitimacy'', Blackwell & Cornell UP 1982\u000a* ''Pacifism & the Just War'', Blackwell  1986<ref>[http://www.nytimes.com/1987/04/26/books/defing-a-good-fight.html?pagewanted=all&src=pm Review in New York Times]</ref>\u000a* ''Philosophy & the Mind'', Blackwell 1988\u000a* ''Philosophy: a Beginners Guide''  (with Katherine Evans) Blackwell 1991, 1995, 1999 (translations in Polish, Spanish, Russian, Korean, Chinese & Georgian)\u000a* ''Social Ethics a Students Guide'', Blackwell  1996 (translations in Spanish, Indonesian, Korean & Polish)<ref name="ref1"/>\u000a* ''Ethics and Reality'' Ashgate, 2001\u000a* ''Philosophers' Hobbies and other Essays'' [27 short papers] illustrated by Michael Jorgensen, Blackjack Press 392 Station Street, Carlton, VIC 3054, Australia  2003.\u000a* ''The Philosophy of War & Peace'', Imprint Academic, 2006\u000a====Anthologies====\u000a* ''Intention & Intentionality: Essays in Honour of [[GEM Anscombe]]'' (with [[Cora Diamond]]) Harvester Press 1979\u000a* ''An Introduction to Modern European Philosophy''  (with Graham White) Macmillan 1995 and 1998\u000a===Book reviews===\u000a{|class='wikitable sortable' width='90%'\u000a|-\u000a!|Date\u000a!class='unsortable'|Review article\u000a!class='unsortable'|Work(s) reviewed\u000a|-\u000a|1995\u000a|{{cite journal |author=Teichman, Jenny |authorlink= |authormask= |date=Oct 1995 |title=Seeing the moral world clearly |department=Books |journal=Quadrant |volume=39 |issue=10 |pages=81-82 |url= |<!--accessdate=-->}}\u000a|{{cite book |editor=Gormally, Luke |editorlink= |editormask= |title=Moral truth and moral tradition : essays in honour of Peter Geach and Elizabeth Anscombe |location=Dublin |publisher=Four Courts Press |year=1994 |<!--isbn=1851821589-->}}\u000a|}\u000a\u000a==References==\u000a{{Reflist}}\u000a\u000a==External links==\u000aJ. Teichman, [http://www.maths.unsw.edu.au/~jim/teichmanonkolnai.html Review of Aurel Kolnai's ''Sexual Ethics'']\u000a\u000aJ. Teichman, [http://www.newcriterion.com/articles.cfm/jekyllhyde-teichman-2339 'Dr Jekyll and Mr Hyde'] (on [[Peter Singer]])\u000a\u000a{{Authority control}}\u000a{{DEFAULTSORT:Teichman, Jenny}}\u000a[[Category:1930 births]]\u000a[[Category:Living people]]\u000a[[Category:20th-century philosophers]]\u000a[[Category:Australian ethicists]]\u000a[[Category:Australian women philosophers]]\u000a[[Category:British philosophers]]\u000a[[Category:Fellows of New Hall, Cambridge]]\u000a[[Category:Quadrant (magazine) people]]\u000a[[Category:University of Melbourne alumni]]
p2
tp3
.