(VJohn Arthur (philosopher)
p1
V{{Use mdy dates|date=June 2011}}\u000a{{Infobox philosopher\u000a| region           = [[Western Philosophy]]\u000a| era              = [[Contemporary philosophy]]\u000a| image            = John Arthur, philosopher.jpg\u000a| image_size       = \u000a| alt        = \u000a| caption          = \u000a| name             = John Arthur\u000a| other_names      = \u000a| birth_date       =September 22, 1946\u000a| birth_place      = \u000a| death_date       = {{dda|2007|1|22|1946|9|22}}<ref name="BU">{{cite news|url=http://www2.binghamton.edu/news/inside/news.html?issue=2007jan25&id=8|title=Philosophy professor John Arthur loses battle with lung cancer|publisher=Binghamton University|accessdate=June 13, 2011}}</ref>\u000a| death_place      = [[Binghamton, New York|Binghamton]], New York\u000a| school_tradition = \u000a| main_interests   = \u000a| notable_ideas    = \u000a| influences       = \u000a| influenced       = \u000a| signature        = \u000a| signature_alt    = \u000a| quote            =\u000a| website          = <!-- {{URL|example.com}} -->\u000a}}\u000a\u000a'''John Arthur''' (September 22, 1946 \u2013 January 22, 2007) was an American professor of philosophy and an expert in [[legal theory]], [[constitutional theory]], [[ethics|social ethics]], and [[political philosophy]].<ref name="BU" /><ref name="APA">{{cite journal|last=Scalet|first=Steven|author-link=Steven P. Scalet|date=May 2007|title=Memorial Minutes: John Arthur (1946\u20132007)|journal=American Philosophical Association|volume=80|issue=5|url=http://www2.binghamton.edu/philosophy-politics-and-law/john-arthur.html}}</ref><ref name="marriage">{{cite news|url=http://www.nytimes.com/1990/06/03/style/amy-shapiro-becomes-bride-of-dr-john-arthur.html|title=Amy Shapiro Becomes Bride of Dr. John Arthur|date=June 3, 1990|work=The New York Times|accessdate=June 12, 2011}}</ref>  He taught at the [[State University of New York at Binghamton]] for 18 years.<ref name="APA" />\u000a\u000a== Early life and education ==\u000a\u000aJohn Arthur, son of L. James Arthur and Elizabeth Gleason Arthur, grew up in [[Denver]], Colorado.<ref name="PD">{{cite news|url=http://www2.bupipedream.com/john-arthur-60-dies-from-lung-cancer-1.1804420|title=John Arthur, 60, dies from lung cancer|last=Dennihy|first=Melissa|date=January 26, 2007|publisher=Pipe Dream|accessdate=June 13, 2011}}</ref>  Arthur earned his [[bachelor's degree]] in philosophy and history at [[Cornell College]] and his master's degree in [[political sociology]] and PhD in philosophy at [[Vanderbilt University]].<ref name="BU" /><ref name="marriage" />\u000a\u000a== Academic career ==\u000a\u000aIn total, John Arthur spent time teaching at five colleges and universities, including [[Brandeis University]], [[Harvard University]], [[Tennessee State University]], the [[College of Charleston]] and [[Lake Forest College]].\u000a\u000aFrom 1981\u20131988 Arthur taught at [[Tennessee State University]]. Finding the [[racial segregation|segregated]] conditions at TSU to be in violation of the [[Equal Protection Clause]] of the [[United States Constitution]], he organized a [[biracial]] group to file suit against the [[Tennessee|State of Tennessee]].<ref name="APA" />  The resulting settlement included a desegregation plan for the entire [[higher education|post-secondary education]] system of Tennessee and brought in millions of dollars to improve Tennessee State University. In 1989, soon after leaving Tennessee State University, Arthur published his first book, ''The Unfinished Constitution: Philosophy and Constitutional Practice''. Arthur served as a fellow in law and philosophy at [[Harvard Law School]] from 1986\u20131988.\u000a\u000aIn 1988, Arthur became a professor of philosophy at [[Binghamton University]], where he worked for 18 years.<ref name="APA" />  He created an [[interdisciplinary]] [[academic major]] for Binghamton undergraduate students called the "Program in Philosophy, Politics, and Law", of which Arthur was the director.<ref name="BU" /><ref name="APA" />  He received the University and Chancellor\u2019s Awards for Excellence in Teaching in 1992.<ref name="BU" />  In 1995, Arthur served as a [[research fellow]] at the [[University of St Andrews]]' Centre for Philosophy and Public Affairs, and from 2002\u20132003 he was a fellow in law and philosophy at the University of Oxford.<ref name="BU" />\u000a\u000a== Personal life ==\u000aIn 1990, John Arthur married [[consumer protection]] lawyer Amy Shapiro in [[Denver]], Colorado.<ref name="marriage" />  Arthur's previous marriage had ended in divorce.<ref name="marriage" />\u000a\u000aJohn Arthur died in [[hospice]] care at [[Lourdes Hospital (New York)|Lourdes Hospital]] in [[Binghamton, New York|Binghamton]], New York on the morning of January 22 after a year-long battle with lung cancer. He was buried in Denver, Colorado and was survived by his wife.<ref name="BU" /><ref name="PD" />\u000a\u000a== Works ==\u000aJohn Arthur wrote three books, the last of which was published posthumously.\u000a* {{cite book | last = Arthur | first = John | title = The unfinished constitution: philosophy and constitutional practice | publisher = Wadsworth Pub. Co | location = Belmont, Calif | year = 1989 | isbn = 9780534100148 }}\u000a* {{cite book | last = Arthur | first = John | title = Words that bind: judicial review and the grounds of modern constitutional theory | publisher = Westview Press | location = Boulder | year = 1995 | isbn = 9780813323497 }}\u000a* {{cite book | last = Arthur | first = John | title = Race, equality, and the burdens of history | publisher = Cambridge University Press | location = Cambridge, UK New York | year = 2007 | isbn = 9780521704953 }}\u000a\u000aArthur also co-edited and co-authored several books, including:\u000a* {{cite book | last1 = Arthur | first1 = John | last2 = Scalet | first2 = Steven P | author-link2 = Steven P. Scalet | title = Morality and moral controversies: readings in moral, social, and political philosophy | publisher = Pearson Prentice Hall | location = Upper Saddle River, N.J | year = 2009 | isbn = 9780136031376 }}\u000a* {{cite book | last1 = Arthur | first1 = John | last2 = Shaw | first2 = William H | title = Readings in the philosophy of law | publisher = Pearson Prentice Hall | location = Upper Saddle River, N.J | year = 2010 | isbn = 9780205708093 }}\u000a\u000a== References ==\u000a{{reflist}}\u000a\u000a== External links ==\u000a* [http://www2.binghamton.edu/philosophy-politics-and-law/ Program in Philosophy, Politics, and Law] at Binghamton University\u000a\u000a{{DEFAULTSORT:Arthur, John}}\u000a[[Category:1946 births]]\u000a[[Category:2007 deaths]]\u000a[[Category:Writers from Denver, Colorado]]\u000a[[Category:People from Nashville, Tennessee]]\u000a[[Category:People from Binghamton, New York]]\u000a[[Category:Tennessee State University faculty]]\u000a[[Category:Binghamton University faculty]]\u000a[[Category:Cornell College alumni]]\u000a[[Category:Vanderbilt University alumni]]\u000a[[Category:American philosophers]]\u000a[[Category:American ethicists]]\u000a[[Category:Writers from New York]]\u000a[[Category:Writers from Tennessee]]
p2
tp3
.