(VJohn R. Steel
p1
V[[File:John R Steel.jpg|thumb|John Steel in 2004]]\u000a'''John Robert Steel''' (born October 30, 1948) is an American set theorist at [[University of California, Berkeley]] (formerly at [[University of California, Los Angeles|UCLA]]).  He has made many contributions to the theory of [[inner model]]s and [[determinacy]].  With [[Donald A. Martin]], he proved [[projective determinacy]], assuming the existence of sufficient [[large cardinal]]s.  He earned his [[Doctor of Philosophy|Ph.D.]] in Logic & the Methodology of Science at Berkeley in 1977 under the joint supervision of John West Addison, Jr. and [[Steve Simpson (mathematician)|Stephen G. Simpson]].<ref>{{MathGenealogy|id=22128}}</ref>\u000a\u000aIn 2015 the European Set Theory Society awarded him and [[Ronald Jensen]] the ''Hausdorff medal'' for their paper "K without a measurable".\u000a\u000a==References==\u000a{{reflist}}\u000a\u000a==External links==\u000a* [http://math.berkeley.edu/~steel/ Home page] at Berkeley\u000a\u000a{{Authority control}}\u000a{{DEFAULTSORT:Steel, John R.}}\u000a[[Category:Living people]]\u000a[[Category:20th-century mathematicians]]\u000a[[Category:21st-century mathematicians]]\u000a[[Category:American logicians]]\u000a[[Category:Set theorists]]\u000a[[Category:University of California, Berkeley alumni]]\u000a[[Category:University of California, Berkeley faculty]]\u000a[[Category:University of California, Los Angeles faculty]]\u000a[[Category:1948 births]]\u000a\u000a\u000a{{US-mathematician-stub}}
p2
tp3
.