(VLalita Pandit
p1
V{{Multiple issues|\u000a{{BLP primary sources|date=January 2012}}\u000a{{no footnotes|date=January 2012}}\u000a}}\u000a\u000a'''Lalita Pandit Hogan''' is a [[poet]] and a [[professor]] of [[English language|English]] at the [[University of Wisconsin\u2013La Crosse]].\u000a\u000aPandit has presented numerous papers at national and international conferences on subjects as diverse as Shakespeare, African Authors, various Indian Authors, and on theoretical subjects. She is currently working on a book manuscript titled ''Comparative Dramaturgy: Indian Aesthetics and Shakespearean Drama''.\u000a\u000a==Bibliography==\u000a*''Criticism and [[Jacques Lacan|Lacan]]: Essays and Dialogue on Language, Structure, and the Unconscious'' (1990)\u000a*''Literary India: Comparative Studies in Aesthetics, Colonialism, and Culture'' (1995)\u000a*''Comparative Poetics: Non-Western Traditions of Literary Theory'' (1996)\u000a\u000a==External links==\u000a*[http://www.koausa.org/Poets/LalitaPandit.html Lalita Pandit's poetry on the Web]\u000a*[http://www.uwlax.edu/english/html/faculty.htm#Hogan Lalita Pandit's faculty page] at the University of Wisconsin-LaCrosse.\u000a\u000a{{Authority control}}\u000a\u000a{{DEFAULTSORT:Pandit, Lalita}}\u000a[[Category:Living people]]\u000a[[Category:American academics]]\u000a[[Category:Writers from Wisconsin]]\u000a[[Category:People from La Crosse, Wisconsin]]\u000a[[Category:Year of birth missing (living people)]]\u000a[[Category:American academics of English literature]]\u000a[[Category:Place of birth missing (living people)]]\u000a[[Category:University of Wisconsin&ndash;La Crosse faculty]]\u000a\u000a\u000a{{US-poet-stub}}\u000a{{US-English-academic-bio-stub}}
p2
tp3
.