(VLeo Harrington
p1
V{{Infobox scientist\u000a|name              = Leo A. Harrington\u000a|image             = Leo Harrington.jpg\u000a|image_size       = \u000a|caption           = \u000a|birth_date        = {{b-da|May 17, 1946}}\u000a|birth_place       = \u000a|death_date        = \u000a|death_place       = \u000a|residence         = \u000a|citizenship       = [[United States]]\u000a|nationality       = \u000a|ethnicity         = \u000a|field             = [[Mathematics]]\u000a|work_institutions = [[University of California, Berkeley]]\u000a|alma_mater        = [[Massachusetts Institute of Technology|MIT]]\u000a|doctoral_advisor  = [[Gerald E. Sacks]]\u000a|doctoral_students = \u000a|known_for         = \u000a|influences        = \u000a|influenced        = \u000a|prizes            = \u000a|religion          = \u000a|footnotes         = \u000a}}\u000a'''Leo Anthony Harrington''' (born May 17, 1946) is a professor of mathematics at the [[University of California, Berkeley]] who works in \u000a[[recursion theory]], [[model theory]], and [[set theory]].\u000a\u000a* Harrington and [[Jeff Paris]] proved the [[Paris\u2013Harrington theorem]].<ref name=Paris>{{Citation\u000a | first = J.\u000a | last = Paris\u000a | first2 = L.\u000a | last2 = Harrington\u000a | contribution = A Mathematical Incompleteness in Peano Arithmetic\u000a | editor-first = J.\u000a | editor-last = Barwise\u000a | year = 1977\u000a | title = Handbook of Mathematical Logic\u000a | pages = 1133\u20131142\u000a | publisher = North-Holland\u000a}}</ref>\u000a\u000a* Harrington showed that if the [[Determinacy|Axiom of Determinacy]] holds for all [[analytic set]]s then [[Zero sharp#Other sharps|x<sup>#</sup>]] exists for all reals x.<ref name=Harrington1978>{{citation\u000a | author = Harrington, L.\u000a | year = 1978\u000a | title = Analytic Determinacy and 0<sup>#</sup>\u000a | journal = Journal of Symbolic Logic\u000a | volume = 43\u000a | issue = 4\u000a | pages = 685\u2013693\u000a | doi = 10.2307/2273508\u000a | jstor=2273508\u000a}}</ref>\u000a\u000a* Harrington and [[Saharon Shelah]] showed that the first order theory of the partially ordered set of recursively enumerable [[Turing degrees]] is undecidable.<ref name=Harrington1982>{{citation\u000a |author1=Harrington, L. |author2=Shelah, S. | year = 1982\u000a | title = The undecidability of the recursively enumerable degrees\u000a | journal = Bull. Amer. Math. Soc. (N.S.)\u000a | volume = 6\u000a | issue = 1\u000a | pages = 79\u201380\u000a | doi = 10.1090/S0273-0979-1982-14970-9\u000a | url = http://www.projecteuclid.org/handle/euclid.bams/1183548593\u000a}}</ref>\u000a\u000a==References==\u000a{{reflist}}\u000a\u000a==External links==\u000a*[http://math.berkeley.edu/~leo/ Home page].\u000a*{{MathGenealogy |id=22298}}\u000a\u000a{{DEFAULTSORT:Harrington, Leo}}\u000a[[Category:Living people]]\u000a[[Category:American logicians]]\u000a[[Category:20th-century American mathematicians]]\u000a[[Category:21st-century American mathematicians]]\u000a[[Category:Massachusetts Institute of Technology alumni]]\u000a[[Category:University of California, Berkeley faculty]]\u000a[[Category:Model theorists]]\u000a[[Category:Set theorists]]\u000a[[Category:1946 births]]\u000a\u000a\u000a{{US-mathematician-stub}}
p2
tp3
.