(VLeonidas Donskis
p1
V{{BLP refimprove|date=September 2016}}\u000a{{Use dmy dates|date=September 2016}}\u000a{{Infobox person\u000a|name = Leonidas Donskis\u000a|image =\u000a|birth_date = {{birth date|1962|08|13|df=y}}\u000a|birth_place = [[Klaip\u0117da]], [[Lithuanian SSR]], [[Soviet Union]]\u000a|death_date = {{death date and age|2016|09|21|1962|08|13|df=y}}\u000a|death_place = [[Vilnius]], Lithuania\u000a|spouse = Jolanta Donskien\u0117\u000a}}\u000a'''Leonidas Donskis ''' (13 August 1962 \u2013 21 September 2016) was a Lithuanian philosopher, political theorist, historian of ideas, social analyst, and political commentator, professor of politics and head of "VDU Academia Cum Laude" at [[Vytautas Magnus University]], Honorary Consul of Finland in Kaunas and deputy chairman of the Lithuanian Jewish Community.<ref name="LZB" /> He was also the member of the [[European Parliament]] (MEP) from 2009 to 2014.\u000a\u000aAs a public figure in [[Lithuania]], he acted as a defender of human rights and civil liberties. In 2004, Donskis has been awarded by the [[European Commission]]  the title of the Ambassador for Tolerance and Diversity in Lithuania. A center-right politician, he has always been opposed to all extreme or exclusionary attitudes and forms of violent politics, and, instead, has been leaning to [[liberalism]] with its advocacy of individual reason and conscience, ability to coexist with democratic programs of other non-exclusive ideologies, and moderation.\u000a\u000aHe died on 21 September 2016, in [[Vilnius Airport]] of an apparent [[heart attack]].<ref>{{cite web|title=Su Leonidu Donskiu atsisveikinti bus galima Kaune|url=http://vz.lt/laisvalaikis/akiraciai/2016/09/21/mire-filososofas-leonidas-donskis|website=VZ.lt|accessdate=22 September 2016|language=lt-LT|date=21 September 2016}}</ref><ref name="LZB">{{cite web|title=Leonidas Donskis Dead at Age 54|url=http://www.lzb.lt/en/2016/09/21/leonidas-donskis-dead-at-age-54/|website=www.lzb.lt|accessdate=22 September 2016|date=21 September 2016}}</ref>\u000a\u000a==Early life==\u000aLeonidas Donskis was born in [[Klaip\u0117da]] in [[Jew]]ish family. He graduated from Lithuanian State Conservatoire (now [[Lithuanian Academy of Music and Theater]]), majoring in philology and theater, and then pursued his graduate studies in philosophy at the [[University of Vilnius]], Lithuania. Having received his first doctorate in philosophy from the [[University of Vilnius]], he later earned his second doctorate in social and moral philosophy from the [[University of Helsinki]], [[Finland]].\u000a\u000aHis main scholarly interests lie in [[philosophy]] of history, philosophy of culture, philosophy of literature, philosophy of the social sciences, civilization theory, political theory, history of ideas, and studies in Central and East European thought.\u000a\u000a==Credentials==\u000a*Doctorate (1999) in Social and Moral Philosophy (D.Soc.Sc.), University of Helsinki, Finland. The dissertation title: ''The End of Ideology and Utopia? Moral Imagination and Cultural Criticism in the Twentieth Century.''\u000a*Doctorate (1990) in Humanities/L.H.D. (Philosophy), Vilnius University, Lithuania. The dissertation title: ''Culture in Crisis and the Philosophy of Culture: Oswald Spengler, Arnold J. Toynbee, Lewis Mumford.''\u000a*M.A. (1987) in Philosophy, Vilnius University, Lithuania (a certificate of graduate studies in philosophy, which was an equivalent of M.A.).\u000a*B.A. (1985) (Diploma in Philology and Theater), Lithuanian State Conservatoire (now Lithuanian Academy of Music and Theater).\u000a\u000a==Professional experience==\u000aA wandering scholar, he has researched and lectured in the [[United States]], [[Great Britain]], and [[Europe]]. He has been involved in various public philosophical and political debates<ref>http://iai.tv/home/speaker/leonidas-donskis</ref> at the [[Institute of Art and Ideas]]. Donskis has been an IREX-International Research and Exchanges Board Fellow, a Fulbright Scholar, and a Visiting Professor of Philosophy at Dickinson College in Pennsylvania, USA; a Swedish Institute Guest Researcher at the University of Gothenburg and a Guest Professor of East European Studies at the University of Uppsala, Sweden; a Leverhulme Trust Visiting Research Fellow at the University of Bradford, Great Britain; Paschal P. Vacca Chair (Distinguished Visiting Professor) of Liberal Arts at the [[University of Montevallo]] in [[Alabama]], USA; and a Fellow at the Collegium Budapest/Institute for Advanced Study, Hungary.\u000a\u000aUntil 7 June 2009, Leonidas Donskis acted as Professor of Political Science at [[Vytautas Magnus University]] in Kaunas, Lithuania. From 2005 to 2009, he served as Professor and Dean of the Faculty of Political Science and Diplomacy at [[Vytautas Magnus University]]. In addition, he acts as Docent of Social and Moral Philosophy at the University of Helsinki, and as Extraordinary Visiting Professor of Cultural Theory at Tallinn University, Estonia. From September 2014 Leonidas Donskis acts as Vice-President for research at [[ISM University of Management and Economics]]. He is also a member of the editorial board of the magazine [[New Eastern Europe]].\u000a\u000a==Political activity==\u000aLeonidas Donskis was invited to campaign for the [[European Parliament]] by the Lithuanian Liberal Movement Party in 2009.  He was the number one candidate on the list of the Party.\u000a\u000aAt the European Parliament (term 2009\u20132014) Leonidas Donskis worked as a part of  the Alliance of Liberals and Democrats for Europe group (ALDE), which is the third largest political group in the Parliament. He was a member of the Development Committee and member of the Subcommittee on Human Rights and also a substitute member at the committee of Civil Liberties, Justice and Home Affairs.\u000a\u000aLeonidas Donskis was the full member of the EU and Armenia, Azerbaijan, and Georgia Parliamentary Cooperation Committee delegation, as well as, the delegation of the Parliamentary Assembly of the EURONEST. He was also a substitute member of the EU relations with Israel, Moldova and the Euro-Mediterranean Parliamentary Assembly delegations.\u000a\u000a==Bibliography==\u000aDonskis has been published widely in international refereed journals, and is the author or editor of more than fifty books, part of them in English, including:\u000a\u000a*Liquid Evil (Cambridge: Polity Press, 2016) (with Zygmunt Bauman),\u000a*Moral Blindness: the Loss of Sensivity in Liquid Modernity (Cambridge: Polity Press, 2013) (with Zygmunt Bauman),\u000a*Modernity in Crisis: A Dialogue on the Culture of Belonging (New York: Palgrave Macmillan, 2011),\u000a*Troubled Identity and the Modern World (New York: Palgrave Macmillan, 2009),\u000a*Power and Imagination: Studies in Politics and Literature (New York: Peter Lang, 2008),\u000a*Loyalty, Dissent, and Betrayal: Modern Lithuania and East-Central European Moral Imagination (Amsterdam & New York: Rodopi, 2005),\u000a*Forms of Hatred: The Troubled Imagination in Modern Philosophy and Literature (Amsterdam & New York: Rodopi, 2003; VIBS-Value Inquiry Book Series Nomination for the 2003 Best Book in Social Philosophy in North America; VIBS 2003 Best Book Award),\u000a*Identity and Freedom: Mapping Nationalism and Social Criticism in Twentieth-Century Lithuania (London & New York: Routledge, 2002),\u000a*The End of Ideology and Utopia? Moral Imagination and Cultural Criticism in the Twentieth Century (New York: Peter Lang, 2000).\u000a\u000aDonskis\u2019s works originally written in Lithuanian and English have been translated into Danish, Estonian, Finnish, German, Hungarian, Italian, Korean, Polish, Portuguese, Romanian, Russian, Spanish, Swedish, Turkish, and Ukrainian. He edits book series for Editions [[Rodopi Publishers|Rodopi]], B. V. (Amsterdam and New York), one in Baltic studies ([[On the Boundary of Two Worlds: Identity, Freedom, and Moral Imagination in the Baltics]]), and another \u2013 VIBS-[[Value Inquiry Book Series]]. From 2005 to 2009, served as a Member of the Standing Committee for the Humanities (SCH) in the European Science Foundation (ESF).\u000a\u000a==References==\u000a{{reflist}}\u000a\u000a==External links==\u000a*[http://www.donskis.eu An official Leonidas Donskis website]\u000a*[http://www.europarl.europa.eu/members/public/geoSearch/view.do?country=LT&partNumber=1&language=LT&id=96692 About L. Donskis in the European Parliament]\u000a*[http://www.donskis.lt/?a=a&ln=en&d=10&t=1&id=77&n=Monographies Complete bibliography of L. Donskis]\u000a\u000a{{Authority control}}\u000a\u000a{{DEFAULTSORT:Donskis, Leonidas}}\u000a[[Category:1962 births]]\u000a[[Category:2016 deaths]]\u000a[[Category:20th-century philosophers]]\u000a[[Category:21st-century philosophers]]\u000a[[Category:Liberal Movement (Lithuania) MEPs]]\u000a[[Category:Lithuanian academics]]\u000a[[Category:Lithuanian Academy of Music and Theatre alumni]]\u000a[[Category:Lithuanian people of Jewish descent]]\u000a[[Category:Lithuanian philosophers]]\u000a[[Category:MEPs for Lithuania 2009\u201314]]\u000a[[Category:Moral philosophers]]\u000a[[Category:People from Klaip\u0117da]]\u000a[[Category:Social philosophers]]\u000a[[Category:Vilnius University alumni]]\u000a[[Category:Vytautas Magnus University faculty]]
p2
tp3
.