(VLynne Rudder Baker
p1
V'''Lynne Rudder Baker''' (born February 14, 1944) is an American philosopher and author, currently a Distinguished Professor at the [[University of Massachusetts Amherst]].  She is a native of [[Atlanta]]. She got her Ph.D. in 1972 from [[Vanderbilt University]].\u000aShe was a fellow of the [[National Humanities Center]] (1983\u20131984) and the [[Woodrow Wilson International Center for Scholars]] (1988\u20131989).  She joined the faculty of UMass Amherst in 1989. She is the author of several books, notably ''Saving Belief: A Critique of Physicalism'' (1987), ''Explaining Attitudes: A Practical Approach to the Mind'' (1995), ''Persons and Bodies: A Constitution View'' (2000), and ''The Metaphysics of Everyday Life: An Essay in Practical Realism'' (2007).  Along with several other scholars, Baker delivered the 2001 [[Gifford Lectures]] in Natural Theology at the [[University of Glasgow]], published as ''The Nature and Limits of Human Understanding'' (ed. Anthony Sanford, T & T Clark, 2003). She is a member of the Amherst Grace Episcopal Church.\u000a\u000a==Views on science and religion==\u000a\u000aBaker imputes to scientists generally the view that human beings are just another species rather than a [[special creation]] of [[God]]:\u000a* {{relentless jas}}\u000a\u000a==Notes==\u000a<references />\u000a\u000a==External links==\u000a* [http://www.giffordlectures.org/Author.asp?AuthorID=244 Biography and summary of Gifford Lectures], by Brannon Hancock\u000a* [http://people.umass.edu/lrb/ Lynne Rudder Baker, UMass Faculty Directory]\u000a\u000a{{Authority control}}\u000a{{DEFAULTSORT:Baker, Lynne Rudder}}\u000a[[Category:American philosophers]]\u000a[[Category:American Christians]]\u000a[[Category:Christian philosophers]]\u000a[[Category:University of Massachusetts Amherst faculty]]\u000a[[Category:1944 births]]\u000a[[Category:Living people]]\u000a[[Category:Vanderbilt University alumni]]\u000a[[Category:American women philosophers]]\u000a[[Category:20th-century philosophers]]\u000a[[Category:21st-century philosophers]]
p2
tp3
.