(VMazen Asfour
p1
V{{Infobox monarch\u000a| name  = Dr. Mazen Asfour<br><big>{{lang|ar|\u0645\u0627\u0632\u0646 \u0639\u0635\u0641\u0648\u0631}}\u000a| title = Jordanian art critic\u000a| image = \u000a| occupation  = [[Jordan University's [http://www.ju.edu.jo/faculties/index.htm Faculty of Fine Arts and Design]]]\u000a| nationality = [[Jordan]]\u000a| birth_date = {{birth date|1953|06|22|mf=y}}\u000a| birth_place = [[Amman]], [[Jordan]]\u000a| field = [[Visual Art]] [[Art Criticism]]\u000a}}\u000a\u000a'''Dr. Mazen Asfour''', ({{lang-ar|'''\u0645\u0627\u0632\u0646 \u0639\u0635\u0641\u0648\u0631 '''}})  a [[Jordan]]ian art critic who graduated from the [[University of Bologna]], [[Italy]], and he holds a Ph. D in Art criticism and Philosophy of Art and [[Aesthetics]].\u000a\u000aMazen Asfour now is a professor in the History of Arts and Art Aesthetics at [[University of Jordan]]\u000a\u000a== Biography ==\u000aDr. Azfour spent almost 15 years in [[Florence]] and [[Bologna]], studying \u201cmuseologia\u201d, [[Art criticism]], [[aesthetics]], semiology where Prof. [[Umberto Eco]] is taking his cultural role at the University of Bologna. Through the same period he worked as art reporter for [[The Jordan Times]] and [[Al Ra'i (Jordanian newspaper)|Al Ra'i]] newspapers, covering Italian art and cultural activities.  Then he became a professor in contract at the Faculty of Archeology and Antiquities in Ravenna (University of Bologna) teaching History of Islamic Art and Islamic Archeology for two years.\u000a\u000a== Philosophy ==\u000aCalled by University of Jordan to participate in the establishing process of the new Faculty of Fine Arts & Design Faculty of as Member of the Higher Founding Committee. His contribution was related to building up the didactic infrastructures, studies plan, methodology, course description, etc., using his personal experience of the Italian art didactic methodology. After that, he became Assistant Professor for teaching the following disciplines: History of Art, Criticism, Aesthetics, Art Theory, Art Terminology, [[Theory of Colours]], Theory of Modern Arts, History of [[Italian Art]] (with particular attention to the Renaissance).\u000a\u000a== Achievements==\u000aAt the same time he was appointed as Chief Supervisor of Museum and Art Affairs of the Deanship of Students for all the University activities. During the same period, he had been participating in various international conferences and symposiums in the field of artistic and cultural dialogues between the Western Countries and the Mediterranean Countries (Barcellona, Milan, Cagliari, Ankara, etc..). he had been assigned as Chief Editor of the National Fine Arts Magazine published by the Ministry of Culture until the end of last year. He is also assigned as Chief of the Accreditation Committee for the Assessment of the Faculties of Art of Jordanian Private Universities, established by [[Ministry of Higher Education and Scientific Research (Jordan)]].\u000a\u000a{{DEFAULTSORT:Asfour, Mazen}}\u000a[[Category:Living people]]\u000a[[Category:Jordanian academics]]\u000a[[Category:1953 births]]\u000a[[Category:University of Bologna alumni]]\u000a[[Category:University of Jordan faculty]]\u000a[[Category:University of Bologna faculty]]
p2
tp3
.