(VMichael Davis (philosopher)
p1
V{{Infobox person\u000a| name                      = Michael Davis\u000a| image                     = <!-- just the name, without the File: or Image: prefix or enclosing [[brackets]] -->\u000a| image_size                = \u000a| alt                       = \u000a| caption                   = \u000a| birth_date                = <!-- {{Birth date and age|YYYY|MM|DD}} -->\u000a| birth_place               = \u000a| residence                 = Chicago\u000a| education                 = BA (philosophy), [[Western Reserve University]], 1965<br />MA (philosophy), [[University of Michigan]]<br/>PhD (philosophy), University of Michigan, 1972<br/>Law, University of Michigan, 1976\u20131977<ref name=cv/>\u000a| occupation                = Professor of philosophy\u000a| employer                  = [[Illinois Institute of Technology]]\u000a| known_for                 = Specializes in professional ethics, philosophy of law, political philosophy\u000a| notable_works             = \u000a| website                   = [http://humansciences.iit.edu/faculty/michael-davis Homepage]\u000a}}\u000a'''Michael Davis''' (born 6 February 1943) is an American philosopher specializing in professional ethics. He is Professor of Philosophy at the [[Illinois Institute of Technology]], and Senior Fellow at its [[Center for the Study of Ethics in the Professions]].\u000a\u000aDavis is the author of several books, including ''Accountability in the Professions'' (1995), ''Profession, Code, and Ethics'' (2002), and ''Engineering Ethics'' (2005).\u000a\u000a==Background==\u000aDavis received his PhD in 1972 from the [[University of Michigan]] for a dissertation entitled "Representation and Consent: An Inquiry into the Foundations of Political Obligation." Before moving to the Illinois Institute of Technology in 1986, he taught at the [[University of Illinois at Chicago]], [[Illinois State University]], and [[Case Western Reserve University]].<ref name=cv>[http://humansciences.iit.edu/faculty/michael-davis "Michael Davis"] and [http://humansciences.iit.edu/sites/humanscience/files/field_uploads/faculty/Davis_VITA%20October%202014.pdf Curriculum Vitae], IIT Lewis College of Human Sciences.</ref>\u000a\u000a==Research interests==\u000aDavis's work in [[engineering ethics]] has won him four large grants from the [[National Science Foundation]] and an entry in ''[[Who's Who in Science and Engineering]]''. His papers on [[whistleblowing]] and [[conflict of interest]] are often reprinted.<ref>See, for example, Michael Davis, "Whistleblowing," in Hugh LaFollette (ed.), ''The Oxford Handbook of Practical Ethics'', Oxford University Press, 2005, [http://books.google.com/books?id=sybd1C5zWkoC&pg=PA539 p. 539ff].</ref> He is the author of eight books and almost 200 articles and chapters, and editor (or co-editor) of five other books.<ref>Note: Davis should not be confused with the philosopher Michael Davis who has taught at [[Sarah Lawrence College]] since 1977, and whose work primarily concerns Aristotle, Plato and Greek Tragedy.</ref>\u000a\u000a==Bibliography==\u000a* with Frederick Elliston, ''Ethics and the Legal Profession'' (Prometheus Books, 1986)\u000a*''To Make the Punishment Fit the Crime'' (Westview Press, 1992)\u000a* with Elliot D. Cohen, ''AIDS: Crisis in Professional Ethics'' (Temple University Press, 1994)\u000a*''Accountability in the Professions'' (1995)\u000a*''Justice in the Shadow of Death: Rethinking Capital and Lesser Punishments'' (Rowman & Littlefield, 1996)\u000a*''Thinking like an Engineer'' (Oxford University Press, 1998)\u000a*''Ethics and the University'' (Routledge, 1999)\u000a* with Andrew Stark, ''Conflict of Interest in the Professions'' (Oxford University Press, 2001)\u000a*''Profession, Code, and Ethics'' (Ashgate, 2002)\u000a*''Actual Social Contract and Political Obligation'' (Edwin Mellen Press, 2002)\u000a*''Engineering Ethics'' (Ashgate, 2005)\u000a*''Code Writing: How Software Engineering Became a Profession'' (Center for the Study of Ethics in the Professions, 2007)\u000a* with Elliot D. Cohen and Frederick Elliston, ''Ethics and the Legal Profession, 2nd ed'' (Prometheus Book, 2009)\u000a*''Thinking like an Engineer: Studies in the Ethics of a Profession'' (Zhejiang University Press, 2012)\u000a*''The Architect\u2019s Professional Ethics: Readings and Problems'' (forthcoming)\u000a\u000a==See also==\u000a* [[American philosophy]]\u000a* [[List of American philosophers]]\u000a\u000a==Notes==\u000a{{reflist}}\u000a\u000a==External links==\u000a* [http://humansciences.iit.edu/faculty/michael-davis IIT faculty page]\u000a\u000a{{conflict of interest}}\u000a\u000a{{Authority control}}\u000a\u000a{{DEFAULTSORT:Davis, Michael}}\u000a[[Category:1943 births]]\u000a[[Category:American philosophers]]\u000a[[Category:Illinois Institute of Technology faculty]]\u000a[[Category:Illinois State University alumni]]\u000a[[Category:Living people]]\u000a[[Category:Professional ethics]]\u000a[[Category:University of Michigan alumni]]
p2
tp3
.