(VNomy Arpaly
p1
V{{Infobox philosopher\u000a|region           = \u000a|era              = \u000a|color            = lightsteelblue\u000a|image       =\u000a|image_size       =\u000a|caption    =\u000a|name             = Nomy Arpaly\u000a|birth_date       = \u000a|birth_place      = \u000a|death_date       =\u000a|school_tradition = \u000a|main_interests   =  [[ethics]], [[moral psychology]], [[action theory (philosophy)|action theory]], and [[free will]]\u000a|notable_ideas    = \u000a|institutions     = [[Brown University]], [[Rice University]], [[University of Michigan, Ann Arbor]]\u000a|influences       = \u000a|influenced       =\u000a|signature        =\u000a}}\u000a'''Nomy Arpaly''' is a Professor of Philosophy at [[Brown University]].<ref name=bio>{{cite web|title=Brown Philosophy : Philosophy Faculty|url=https://www.brown.edu/Departments/Philosophy/people-facultymember.php?key=2|accessdate=25 March 2014}}</ref> Her main research interests include ethics, moral psychology, action theory, and free will; she has written two books on moral agency (''Unprincipled Virtue: an Inquiry into Human Agency'' and ''In Praise of Desire'',) and one (''Merit, Meaning, and Human Bondage \u2013 an Essay on Free Will'') on free will.<ref name=oup/><ref name=cv>{{cite web|last=Arpaly|first=Nomy|title=Curriculum Vitae|url=https://research.brown.edu/pdf/10322.pdf?nocache=1537956474|publisher=Brown University|accessdate=25 March 2014}}</ref>\u000a\u000a==Education and career==\u000aArpaly received a dual bachelor's from [[Tel Aviv University]] in 1992 in philosophy and linguistics, and a doctorate in philosophy from [[Stanford University]] in 1998.<ref name=cv/> She accepted a position as a Visiting Assistant Professor at the [[University of Michigan, Ann Arbor]] for the 1998\u20139 term, before accepting an Assistant Professorship at [[Rice University]] where she stayed in 2003.  In 2003, she accepted an Assistant Professorship at [[Brown University]], where she was promoted to Associate Professor in 2006, and then to Professor of Philosophy in 2014.<ref name=cv/>\u000a\u000a==Research areas and publications==\u000aArpaly has authored three volumes \u2013 one focused on moral agency \u2013 ''Unprincipled Virtue: an Inquiry into Human Agency'' (2002) \u2013 and one focused on free will \u2013 ''Merit, Meaning, and Human Bondage \u2013 an Essay on Free Will'' (2006.)<ref name=cv/>  and one dealing with human agency \u2013 ''In Praise of Desire'' (2014.)<ref name=oup>{{cite web|title=In Praise of Desire: Nomy Arpaly|url=http://ukcatalogue.oup.com/product/9780199348169.do|publisher=Oxford University Press|accessdate=31 March 2014}}</ref>  Additionally, she's written a number of peer-reviewed papers dealing with topics such as ethics, moral psychology, and action theory.<ref name=cv/>\u000a\u000aIn ''Unprincipled Virtue: an Inquiry into Human Agency'', Arpaly sets out to develop a systematic way to determine whether an individual is blameworthy or praiseworthy.<ref name=pb>{{cite journal|last=McConnell|first=Terrance|title=Review of Nomy Arpaly's Unprincipled Virtue|journal=Philosophical Books|date=January 2005|volume=46|issue=1|pages=87\u201388|accessdate=25 March 2014}}</ref>  Arpaly engages with (and attempts to refute) a number of prominent philosophers who have dealt with the issue previously (including Kant and Aristotle,) but focuses foremost on developing her own theory of praiseworthiness, one in which people are praise (or blame)worthy for their acts in a way that varies with their moral motivations, and (in the case of blameworthiness) with the amount of their moral indifference \u2013 a concept she sums up as \u2013 Praiseworthiness as Responsiveness to Moral Reasons.<ref name=pb/>   Arpaly articulates a skeptical and deflationary view of the whole idea of autonomy, pointing out that at least eight separate notions of the idea of autonomy can be found in modern philosophical literature, and doubting that autonomy of any sort is needed for an action to be praiseworthy.<ref name=pb/><ref name=up>{{cite book|last=Arpaly|first=Nomy|title=Unprincipled virtue : an inquiry into moral agency.|date=2003|publisher=Oxford University Press|location=New York|isbn=978-0195179767|edition=Paperback}}</ref>  One of the most significant contributions of Arpaly's book is simply that it lays out the flaws present in most former philosophical debate on the subject \u2013 the use of overly simple and unnuanced models in previous discussions of praiseworthiness.<ref>{{cite journal|last=Suikkanen|first=Jussi|title=Unprincipled Virtue \u2013 Nomy Arpaly|journal=Ratio|date=June 2006|volume=19|issue=2|pages=261\u2013265|doi=10.1111/j.1467-9329.2006.00324.x}}</ref>  One of the central claims of ''Unprincipled Virtue'' is that the assistance that [[Huckleberry Finn]] renders to Jim is morally worthy even though Huck actively believes that he is doing something wrong, and that [[akrasia]] can sometimes be a more rational state than individual autonomy.<ref name=pb/><ref name=up/>\u000a\u000a==References==\u000a{{reflist}}\u000a\u000a{{DEFAULTSORT:Arpaly, Nomy}}\u000a[[Category:Living people]]\u000a[[Category:Women philosophers]]\u000a[[Category:20th-century philosophers]]\u000a[[Category:21st-century philosophers]]\u000a[[Category:Brown University faculty]]\u000a[[Category:Ethicists]]\u000a[[Category:University of Michigan staff]]
p2
tp3
.