(VNuel Belnap
p1
V'''Nuel D. Belnap, Jr.''' (born 1930) is an American logician and philosopher who has made many important contributions to the [[philosophy of logic]], [[temporal logic]], and [[structural proof theory]].  He taught at the [[University of Pittsburgh]] since 1963 until his retirement in 2011; before that he was at [[Yale University]]. His best-known work is his collaboration with [[Alan Ross Anderson]] on [[relevance logic]]. He has also published books on the logic of [[question]]s and [[answer]]s, with Thomas Steel, and the logic of [[agency (philosophy)|agency]], with Michael Perloff and Ming Xu.  He has contributed to the foundations of two very distinct theories of [[truth]]: he was a co-author of ''The Prosentential Theory of Truth'' with [[Dorothy Grover]] and [[Joseph Camp]], and of ''The Revision Theory of Truth'' with [[Anil Gupta (philosopher)|Anil Gupta]]. He is also co-author with Ming Xu and Michel Perloff of ''Facing the Future''. He was elected a Fellow of the [[American Academy of Arts and Sciences]] in 2008.<ref name=AAAS>{{cite web|title=Book of Members, 1780-2010: Chapter B|url=http://www.amacad.org/publications/BookofMembers/ChapterB.pdf|publisher=American Academy of Arts and Sciences|accessdate=May 30, 2011}}</ref>\u000a\u000a==See also==\u000a*[[Display logic]]\u000a*[[Erotetics]]\u000a*[[Logical harmony]]\u000a*[[Relevance logic]]\u000a\u000a==References==\u000a{{Reflist}}\u000a\u000a{{Authority control}}\u000a\u000a{{DEFAULTSORT:Belnap, Nuel}}\u000a[[Category:1930 births]]\u000a[[Category:20th-century philosophers]]\u000a[[Category:21st-century philosophers]]\u000a[[Category:American logicians]]\u000a[[Category:Analytic philosophers]]\u000a[[Category:Fellows of the American Academy of Arts and Sciences]]\u000a[[Category:Living people]]\u000a[[Category:University of Pittsburgh faculty]]\u000a[[Category:Yale University faculty]]\u000a[[Category:Guggenheim Fellows]]\u000a\u000a\u000a{{US-philosopher-stub}}
p2
tp3
.