(VOswald von Nell-Breuning
p1
V{{no footnotes|date=May 2014}}\u000a'''Oswald von Nell-Breuning''' [[Society of Jesus|SJ]] (March 8, 1890 &ndash; August 21, 1991) was a [[Roman Catholic]] theologian and [[sociology|sociologist]].\u000a\u000aBorn in [[Trier]], [[Germany]] into an aristocratic family, Nell-Breuning was ordained in 1921 and appointed Professor of Ethics at the [[Goethe University Frankfurt|University of Frankfurt am Main]] in 1928. He was instrumental in the drafting of [[Pope Pius XI]]'s social [[encyclical]] ''[[Quadragesimo anno]]'' (1931), which &ndash; like the earlier ''[[Rerum novarum]]'' (1891), after which it was named &ndash; dealt with the "Social Question" and developed the principle of [[subsidiarity (Catholicism)|subsidiarity]]. Nell-Breuning was not allowed to publish from 1936 to the end of [[Nazi Germany]] in 1945. He died in [[Frankfurt am Main]].\u000a\u000a==References==\u000a* [http://www.helmut-zenz.de/hznellbr.html Oswald von Nell-Breuning (1890-1991)&mdash;Katholischer Sozialethiker, Sozialphilosoph und Sozialwissenschaftler]\u000a\u000a{{Authority control}}\u000a{{DEFAULTSORT:Nell-Breuning, Oswald von}}\u000a[[Category:1890 births]]\u000a[[Category:1991 deaths]]\u000a[[Category:German centenarians]]\u000a[[Category:German Jesuits]]\u000a[[Category:People from Trier]]\u000a[[Category:20th-century German Catholic theologians]]\u000a[[Category:Members of the Bavarian Maximilian Order for Science and Art]]\u000a[[Category:People from the Rhine Province]]\u000a[[Category:German male writers]]\u000a[[Category:Grand Crosses of the Order of Merit of the Federal Republic of Germany]]\u000a\u000a\u000a{{RC-stub}}\u000a{{Germany-theologian-stub}}
p2
tp3
.