(VPhilip Jourdain
p1
V{{Use British English|date=August 2011}}\u000a{{Use dmy dates|date=August 2011}}\u000a{{Infobox person\u000a| name   = Philip Jourdain\u000a| image     =  <!-- NOTE TO EDITORS: Do not replace the header image unless it is with a photo under a public domain or free license (NOT the same as fair use). Any fair use photos (i.e. promotional photos, album covers) are copyright violations and will be deleted. Also see http://en.wikipedia.org/wiki/Wikipedia:Non-free content use criteria -->\u000a| image_size     = \u000a| caption        = \u000a| birth_date  = 16 October 1879\u000a| birth_place = [[Ashbourne, Derbyshire|Ashbourne]], [[Derbyshire]]\u000a| death_date  = {{d-da|1 October 1919|16 October 1879}}\u000a| death_place = [[Crookham Village|Crookham]],<!--This is according to the ''MacTutor History of Mathematics archive''. However, [[Ivor Grattan-Guinness]] gives [[Fleet, Hampshire]] in ''Writing the history of mathematics'', edited by Joseph Warren Dauben and Christoph J. Scriba, 2002.--> [[Hampshire]] \u000a| education      = \u000a| occupation     = Editor and mathematician\u000a| spouse         = Laura Jourdain\u000a| parents        = Emily Clay and Francis Jourdain\u000a| children       = \u000a}}\u000a\u000a'''Philip Edward Bertrand Jourdain''' (16 October 1879 \u2013 1 October 1919) was a British [[logician]] and follower of [[Bertrand Russell]].\u000a\u000aHe was born in [[Ashbourne, Derbyshire|Ashbourne]] in Derbyshire<ref>*{{MacTutor Biography|id=Jourdain}}</ref> one of a large family belonging to Emily Clay and his father  Francis Jourdain (who was the vicar at Ashbourne).<ref name=turn/> He was partly disabled by [[Friedreich's ataxia]]. He corresponded with [[Georg Cantor]] and [[Gottlob Frege]], and took a close interest in the paradoxes related to [[Russell's paradox]], formulating the [[card paradox]] version of the [[liar paradox]].<ref name=turn>[http://www-groups.dcs.st-and.ac.uk/~history/Biographies/Jourdain.html Turnbull archive] accessed 7 December 2007</ref> He corresponded with [[Ludwig Wittgenstein]], meeting with him in Cambridge to discuss Frege's book [[Grundgesetze der Arithmetik]], of parts of which Jourdain had prepared a translation. He also worked on [[algebraic logic]], and the history of science with [[Isaac Newton]] as a particular study. He was London editor for ''[[The Monist]]''. Near the end of his life he became increasingly obsessed by trying to prove the [[axiom of choice]], and published several incorrect proofs of it. \u000a\u000aHis sister [[Eleanor Jourdain]] was an English academic and author.\u000a\u000a==Works==\u000aThe following works of Philip Jourdain are available from [[Internet Archive]]:\u000a* 1908: [https://archive.org/details/jstor-27900104 Some Points in the Foundation of Mathematical Physics] in [[The Monist]] v 18\u000a* 1911: [https://archive.org/details/jstor-27900347 Some Modern Advances in Logic] in ''The Monist'' v 21\u000a* 1913: [https://archive.org/details/thenatureofmath00jouruoft The Nature of Mathematics]\u000a* 1913: [https://archive.org/details/jstor-27900429 The Nature  and Validity of the Principle of Least Action] in ''The Monist'' v 23\u000a* 1914: [https://archive.org/details/jstor-27900477 The Economy of Thought] in ''The Monist'' v 24\u000a* 1918: [https://archive.org/details/philosophyrussel00jouruoft The Philosophy of B*rtr*nd R*ss*ll with an appendix of leading passages from certain other works]\u000a* 1919: [https://archive.org/details/jstor-27900767 Indefinables and Indemonstrables in Mathematics and Theology] in ''The Monist'' v 29\u000aJordain acted as editor for\u000a*1914:  [[Augustus De Morgan]]:  [https://archive.org/details/cu31924012316901 Essays on the Life and Work of Newton]\u000aJourdain made the following translations:\u000a* 1911: [[Ernst Mach]] [https://archive.org/details/historyandrootp00machgoog History and Root of the Principle of Conservation of Energy]\u000a* 1915: Ernst Mach [https://archive.org/details/scienceofmechani00machrich The Science of Mechanics]\u000a* 1915: [[Georg Cantor]] [https://archive.org/details/contributionstof00cantrich Contributions to the Foundation of the Theory of Transfinite Numbers]\u000a\u000a==References==\u000a{{Reflist|2}}\u000a* [[Ivor Grattan-Guinness]] (1977) ''Dear Russell\u2014Dear Jourdain: a Commentary on Russell's Logic, Based on His Correspondence with Philip Jourdain''. [[Gerald Duckworth and Company|Duckworth]].\u000a** {{cite journal|author=Sainsbury, R. M.|authorlink=R. M. Sainsbury|title=Review: ''Dear Russell\u2014Dear Jourdain'', by I. Grattan-Guinness|journal=[[Mind (journal)|Mind]]|series=New Series|date=Oct 1979|volume=88|issue=352|pages=604\u2013607|url=http://www.jstor.org/stable/2253463}} .\u000a* Archibald Edward Heath (1920) "Philip Edward Bertrand Jourdain", ''The Monist'' 30:161\u2013182.\u000a\u000a==External links==\u000a*{{MacTutor Biography|id=Jourdain}}\u000a* {{Internet Archive author |sname=Philip Jourdain}}\u000a\u000a{{Authority control}}\u000a\u000a{{DEFAULTSORT:Jourdain, Philip}}\u000a[[Category:1879 births]]\u000a[[Category:1919 deaths]]\u000a[[Category:People from Ashbourne, Derbyshire]]\u000a[[Category:English logicians]]\u000a[[Category:English philosophers]]
p2
tp3
.