(VRichard Kilvington
p1
V'''Richard Kilvington''' (c. 1302-1361) was an English [[Scholasticism|scholastic]] philosopher at the [[University of Oxford]]. His surviving works are lecture notes from the 1320s and 1330s. He was a Fellow of [[Oriel College, Oxford]].<ref>Jan A. Aertsen, Andreas Speer (editors), ''Raum und Raumvorstellungen im Mittelalter'' (1998), p. 179.</ref> He was involved in a controversy over the nature of the [[Infinity (philosophy)|infinite]], with [[Richard FitzRalph]], of [[Balliol College]].<ref>John David North, ''Stars, Minds, and Fate: Essays in Ancient and Medieval Cosmology'' (1989), p. 242.</ref>\u000a\u000aIn the 1340s he worked for [[Richard of Bury]], [[bishop of Durham]].<ref>Jorge J. E. Gracia, Timothy B. Noone, ''A Companion to Philosophy in the Middle Ages'' (2003), p. 571.</ref>\u000a\u000a==References==\u000a* Barbara Ensign Kretzmann, [[Norman Kretzmann]] (eds), ''The Sophismata of Richard Kilvington'', critical edition of the Latin text, New York: Oxford University Press, 1990.\u000a* Barbara Ensign Kretzmann, [[Norman Kretzmann]] (eds), ''The Sophismata of Richard Kilvington'', introduction, translation, and commentary, Cambridge: Cambridge University Press, 1990.\u000a\u000a==Notes==\u000a{{reflist}}\u000a\u000a==External links==\u000a*{{cite SEP |url-id=kilvington |title=Richard Kilvington |last=Jung |first=Elzbieta}}\u000a\u000a{{Authority control}}\u000a\u000a{{DEFAULTSORT:Kilvington, Richard}}\u000a[[Category:1361 deaths]]\u000a[[Category:Scholastic philosophers]]\u000a[[Category:Fellows of Oriel College, Oxford]]\u000a[[Category:Year of birth uncertain]]
p2
tp3
.