(VShmuel Alexandrov
p1
VRabbi '''Shmuel Alexandrov''' of [[Bobruisk]] ({{lang-he|\u05e9\u05de\u05d5\u05d0\u05dc \u05d0\u05dc\u05db\u05e1\u05e0\u05d3\u05e8\u05d5\u05d1}}; 1865\u20131941) was a prominent student of the [[Volozhin Yeshiva]], who became close to the tradition of [[Chabad]] Hasidism. Alexandrov was a [[Orthodox Judaism|Jewish Orthodox]] mystical thinker, philosopher and [[individualist anarchism|individualist anarchist]], whose religious thought, an original blending of [[Kabbalah]], [[Orthodox Judaism]], contemporary [[philosophy]] and secular literature, are marked by [[universalism]] and some degree of [[antinomianism]].<ref>Luz, Ehud 1981 "Spiritualism and religious anarchism in the teaching of Shmuel Alexandrov" (Hebrew). Daat, no. 7 (summer): 121-138.</ref><ref>\u000a{{cite web\u000a|url=http://www.jcrelations.net/en/?item=1913\u000a|title=Universalist Trends in Jewish Religious Thought: Some Russian Perspectives\u000a|publisher=Jewish-Christian Relations\u000a|accessdate=2008-03-02\u000a|last=Argusky\u000a|first=Mikhail\u000a}}\u000a</ref> His works include ''\u05e4\u05da \u05d4\u05e9\u05de\u05df'' ("the Oil Jug"), a commentary on [[Pirkey Avot]], and a large collection of essays, ''\u05de\u05db\u05ea\u05d1\u05d9 \u05de\u05d7\u05e7\u05e8 \u05d5\u05d1\u05d9\u05e7\u05d5\u05e8\u05ea'' ("Letters of Research and Investigation"). Alexandrov was influenced by the anarchistic implications of the work of [[Rav Kook]] (the first [[Ashkenazi]] chief rabbi of the British [[Mandate for Palestine]]), from which he sought to derive practical instruction.<ref name=kook>{{cite book |last=Ish |first=Shalom |title=Rav Avraham Itzhak Hacohen Kook |publisher=State University of New York Press |location=Albany |year=1993 |isbn=0-7914-1369-1 }}</ref> Another influence on Alexandrov was Russian philosopher [[Vladimir Solovyov (philosopher)|Vladimir Solovyov]].<ref>Konstantin Burmistrov (Institute of Philosophy, Russian Academy of Sciences, Moscow, Russia) ''On the History of Russian-Jewish Intellectual Relations: Vladimir Solovyev and Rabbi Shmuel Alexandrov''</ref> Alexandrov lived all his life in Bobruisk and perished in [[the Holocaust]].<ref name=hamutal>\u000a{{cite book\u000a|chapterurl=http://www.bgu.ac.il/~baryosef/Eng/research/jewish_vladimir_reception.htm\u000a|chapter=The Jewish Reception of Vladimir Solovyov\u000a|accessdate=2008-03-02\u000a|title=Vladimir Solovyov: Reconciler and Polemicist\u000a|editor-first=Ewert |editor-last=von Zweerde\u000a|last=Bar-Yosef\u000a|first=Hamutal\u000a}}\u000a  {{wayback|url=http://www.bgu.ac.il/~baryosef/Eng/research/jewish_vladimir_reception.htm |date=20110611235511 }}</ref>\u000a\u000a==See also==\u000a*[[Anarchism and Orthodox Judaism]]\u000a*[[Jewish anarchism]]\u000a\u000a==Further reading==\u000a*\u201cShmuel Alksandrov\u201d, ''Sefer Bobruisk'' (Bobruoisk book), ed. Yehuda Slutski Tel-Aviv, 1967, vol. 1, p.&nbsp;322\u000a*Mikhail Agursky, \u201cUniversalist Trends in Jewish Religious Thought\u201d, ''Immanuel''  18 (Fall 1984), pp.&nbsp;49\u201351\u000a*A. Greenboim, ''Rabanei Brit-ha-Moetsot  bein milkhamot ha-olam'' (Rabbis in the Soviet Union between the World Wars), Jerusalem: The Institute for Research and Documentation of East-European Jewry, 1994, p.&nbsp;10.\u000a\u000a==References==\u000a{{reflist}}\u000a\u000a{{Anarchism}}\u000a\u000a{{DEFAULTSORT:Alexandrov, Shmuel}}\u000a[[Category:1865 births]]\u000a[[Category:1941 deaths]]\u000a[[Category:20th-century philosophers]]\u000a[[Category:Jewish anarchists]]\u000a[[Category:Jewish philosophers]]\u000a[[Category:Lithuanian Orthodox rabbis]]\u000a[[Category:Rabbis who died in the Holocaust]]\u000a[[Category:Individualist anarchists]]\u000a[[Category:Russian anarchists]]\u000a\u000a\u000a{{anarchist-stub}}
p2
tp3
.